
gad.elf:     file format elf32-littlenios2
gad.elf
architecture: nios2, flags 0x00000112:
EXEC_P, HAS_SYMS, D_PAGED
start address 0x000001b8

Program Header:
    LOAD off    0x00001000 vaddr 0x00000000 paddr 0x00000000 align 2**12
         filesz 0x00000020 memsz 0x00000020 flags r-x
    LOAD off    0x00001020 vaddr 0x00000020 paddr 0x00000020 align 2**12
         filesz 0x00009c80 memsz 0x00009c80 flags r-x
    LOAD off    0x0000aca0 vaddr 0x00009ca0 paddr 0x0000ba9c align 2**12
         filesz 0x00001dfc memsz 0x00001dfc flags rw-
    LOAD off    0x0000d898 vaddr 0x0000d898 paddr 0x0000d898 align 2**12
         filesz 0x00000000 memsz 0x003d0cb4 flags rw-

Sections:
Idx Name          Size      VMA       LMA       File off  Algn
  0 .entry        00000020  00000000  00000000  00001000  2**5
                  CONTENTS, ALLOC, LOAD, READONLY, CODE
  1 .exceptions   00000198  00000020  00000020  00001020  2**2
                  CONTENTS, ALLOC, LOAD, READONLY, CODE
  2 .text         0000961c  000001b8  000001b8  000011b8  2**2
                  CONTENTS, ALLOC, LOAD, READONLY, CODE
  3 .rodata       000004cc  000097d4  000097d4  0000a7d4  2**2
                  CONTENTS, ALLOC, LOAD, READONLY, DATA
  4 .rwdata       00001dfc  00009ca0  0000ba9c  0000aca0  2**2
                  CONTENTS, ALLOC, LOAD, DATA, SMALL_DATA
  5 .bss          003d0f8e  0000d898  0000d898  0000d898  2**2
                  ALLOC, SMALL_DATA
  6 .comment      00000026  00000000  00000000  0000ca9c  2**0
                  CONTENTS, READONLY
  7 .debug_aranges 00000ad8  00000000  00000000  0000cac8  2**3
                  CONTENTS, READONLY, DEBUGGING
  8 .debug_pubnames 00001bdd  00000000  00000000  0000d5a0  2**0
                  CONTENTS, READONLY, DEBUGGING
  9 .debug_info   000223ef  00000000  00000000  0000f17d  2**0
                  CONTENTS, READONLY, DEBUGGING
 10 .debug_abbrev 0000618e  00000000  00000000  0003156c  2**0
                  CONTENTS, READONLY, DEBUGGING
 11 .debug_line   00010b52  00000000  00000000  000376fa  2**0
                  CONTENTS, READONLY, DEBUGGING
 12 .debug_frame  00001b98  00000000  00000000  0004824c  2**2
                  CONTENTS, READONLY, DEBUGGING
 13 .debug_str    00001e8e  00000000  00000000  00049de4  2**0
                  CONTENTS, READONLY, DEBUGGING
 14 .debug_loc    000041e9  00000000  00000000  0004bc72  2**0
                  CONTENTS, READONLY, DEBUGGING
 15 .debug_alt_sim_info 00000050  00000000  00000000  0004fe5c  2**2
                  CONTENTS, READONLY, DEBUGGING
 16 .debug_ranges 000001c0  00000000  00000000  0004feb0  2**3
                  CONTENTS, READONLY, DEBUGGING
 17 .thread_model 00000003  00000000  00000000  00053b9b  2**0
                  CONTENTS, READONLY
 18 .cpu          00000003  00000000  00000000  00053b9e  2**0
                  CONTENTS, READONLY
 19 .qsys         00000001  00000000  00000000  00053ba1  2**0
                  CONTENTS, READONLY
 20 .simulation_enabled 00000001  00000000  00000000  00053ba2  2**0
                  CONTENTS, READONLY
 21 .sysid_hash   00000004  00000000  00000000  00053ba3  2**0
                  CONTENTS, READONLY
 22 .sysid_base   00000004  00000000  00000000  00053ba7  2**0
                  CONTENTS, READONLY
 23 .sysid_time   00000004  00000000  00000000  00053bab  2**0
                  CONTENTS, READONLY
 24 .stderr_dev   00000009  00000000  00000000  00053baf  2**0
                  CONTENTS, READONLY
 25 .stdin_dev    00000009  00000000  00000000  00053bb8  2**0
                  CONTENTS, READONLY
 26 .stdout_dev   00000009  00000000  00000000  00053bc1  2**0
                  CONTENTS, READONLY
 27 .sopc_system_name 0000000b  00000000  00000000  00053bca  2**0
                  CONTENTS, READONLY
 28 .quartus_project_dir 0000001e  00000000  00000000  00053bd5  2**0
                  CONTENTS, READONLY
 29 .jdi          00004aa3  00000000  00000000  00053bf3  2**0
                  CONTENTS, READONLY
 30 .sopcinfo     00108489  00000000  00000000  00058696  2**0
                  CONTENTS, READONLY
SYMBOL TABLE:
00000000 l    d  .entry	00000000 .entry
00000020 l    d  .exceptions	00000000 .exceptions
000001b8 l    d  .text	00000000 .text
000097d4 l    d  .rodata	00000000 .rodata
00009ca0 l    d  .rwdata	00000000 .rwdata
0000d898 l    d  .bss	00000000 .bss
00000000 l    d  .comment	00000000 .comment
00000000 l    d  .debug_aranges	00000000 .debug_aranges
00000000 l    d  .debug_pubnames	00000000 .debug_pubnames
00000000 l    d  .debug_info	00000000 .debug_info
00000000 l    d  .debug_abbrev	00000000 .debug_abbrev
00000000 l    d  .debug_line	00000000 .debug_line
00000000 l    d  .debug_frame	00000000 .debug_frame
00000000 l    d  .debug_str	00000000 .debug_str
00000000 l    d  .debug_loc	00000000 .debug_loc
00000000 l    d  .debug_alt_sim_info	00000000 .debug_alt_sim_info
00000000 l    d  .debug_ranges	00000000 .debug_ranges
000001f0 l       .text	00000000 alt_after_alt_main
00000000 l    df *ABS*	00000000 alt_irq_handler.c
00000000 l    df *ABS*	00000000 PS2_ISR.c
00000000 l    df *ABS*	00000000 audio_ISR.c
00000000 l    df *ABS*	00000000 globals.c
00000000 l    df *ABS*	00000000 interval_timer_ISR.c
00000000 l    df *ABS*	00000000 media_interrupt_HAL.c
00009ad6 l     O .rodata	00000010 C.27.2149
00000000 l    df *ABS*	00000000 pushbutton_ISR.c
00000000 l    df *ABS*	00000000 memcpy.c
00000000 l    df *ABS*	00000000 memset.c
00000000 l    df *ABS*	00000000 alt_irq_register.c
00000000 l    df *ABS*	00000000 alt_irq_vars.c
00000000 l    df *ABS*	00000000 alt_load.c
000012c4 l     F .text	0000006c alt_load_section
00000000 l    df *ABS*	00000000 alt_main.c
00000000 l    df *ABS*	00000000 alt_printf.c
00000000 l    df *ABS*	00000000 alt_putchar.c
00000000 l    df *ABS*	00000000 alt_sys_init.c
00009ca0 l     O .rwdata	00001060 JTAG_UART
0000ad00 l     O .rwdata	00000030 AV_Config
0000ad30 l     O .rwdata	00000030 Audio
0000ad60 l     O .rwdata	0000002c Char_LCD_16x2
0000ad8c l     O .rwdata	0000003c Ethernet
0000adc8 l     O .rwdata	0000002c IrDA_UART
0000adf4 l     O .rwdata	0000002c Expansion_JP1
0000ae20 l     O .rwdata	0000002c Expansion_JP2
0000ae4c l     O .rwdata	0000002c Green_LEDs
0000ae78 l     O .rwdata	0000002c HEX3_HEX0
0000aea4 l     O .rwdata	0000002c HEX7_HEX4
0000aed0 l     O .rwdata	0000002c Pushbuttons
0000aefc l     O .rwdata	0000002c Red_LEDs
0000af28 l     O .rwdata	0000002c Slider_Switches
0000af54 l     O .rwdata	00000038 PS2_Port
0000af8c l     O .rwdata	0000002c Serial_Port
0000afb8 l     O .rwdata	00000034 USB
0000afec l     O .rwdata	00000048 VGA_Char_Buffer
0000b034 l     O .rwdata	00000054 VGA_Pixel_Buffer
0000b088 l     O .rwdata	0000002c SD_Card
00001a68 l     F .text	00000038 alt_dev_reg
00000000 l    df *ABS*	00000000 altera_avalon_jtag_uart_fd.c
00000000 l    df *ABS*	00000000 altera_avalon_jtag_uart_init.c
00001ca0 l     F .text	0000022c altera_avalon_jtag_uart_irq
00001ecc l     F .text	000000b0 altera_avalon_jtag_uart_timeout
00000000 l    df *ABS*	00000000 altera_avalon_jtag_uart_ioctl.c
00000000 l    df *ABS*	00000000 altera_avalon_jtag_uart_read.c
00000000 l    df *ABS*	00000000 altera_avalon_jtag_uart_write.c
00000000 l    df *ABS*	00000000 altera_avalon_timer_sc.c
00002548 l     F .text	00000074 alt_avalon_timer_sc_irq
00000000 l    df *ABS*	00000000 altera_up_avalon_audio.c
00000000 l    df *ABS*	00000000 altera_up_avalon_character_lcd.c
00000000 l    df *ABS*	00000000 altera_up_avalon_ethernet.c
00000000 l    df *ABS*	00000000 altera_up_avalon_ethernet_low_level_driver.c
00000000 l    df *ABS*	00000000 altera_up_avalon_irda.c
00000000 l    df *ABS*	00000000 altera_up_avalon_parallel_port.c
00000000 l    df *ABS*	00000000 altera_up_avalon_ps2.c
00000000 l    df *ABS*	00000000 altera_up_avalon_rs232.c
00000000 l    df *ABS*	00000000 altera_up_avalon_video_character_buffer_with_dma.c
00000000 l    df *ABS*	00000000 altera_up_avalon_video_pixel_buffer_dma.c
00000000 l    df *ABS*	00000000 alt_alarm_start.c
00000000 l    df *ABS*	00000000 alt_close.c
00006034 l     F .text	00000060 alt_get_errno
00000000 l    df *ABS*	00000000 alt_dcache_flush_all.c
00000000 l    df *ABS*	00000000 alt_dev.c
000060b0 l     F .text	0000002c alt_dev_null_write
00000000 l    df *ABS*	00000000 alt_dev_llist_insert.c
00006190 l     F .text	00000060 alt_get_errno
00000000 l    df *ABS*	00000000 alt_do_ctors.c
00000000 l    df *ABS*	00000000 alt_do_dtors.c
00000000 l    df *ABS*	00000000 alt_errno.c
00000000 l    df *ABS*	00000000 alt_find_dev.c
00000000 l    df *ABS*	00000000 alt_icache_flush_all.c
00000000 l    df *ABS*	00000000 alt_io_redirect.c
0000637c l     F .text	000000c4 alt_open_fd
00000000 l    df *ABS*	00000000 alt_open.c
000064b8 l     F .text	000000dc alt_file_locked
0000671c l     F .text	00000060 alt_get_errno
00000000 l    df *ABS*	00000000 alt_release_fd.c
00000000 l    df *ABS*	00000000 alt_tick.c
00000000 l    df *ABS*	00000000 alt_usleep.c
00000000 l    df *ABS*	00000000 altera_nios2_qsys_irq.c
00000000 l    df *ABS*	00000000 alt_busy_sleep.c
00000000 l    df *ABS*	00000000 alt_find_file.c
00000000 l    df *ABS*	00000000 alt_get_fd.c
00000000 l    df *ABS*	00000000 alt_icache_flush.c
00000000 l    df *ABS*	00000000 atexit.c
00000000 l    df *ABS*	00000000 exit.c
00000000 l    df *ABS*	00000000 impure.c
0000b25c l     O .rwdata	00000400 impure_data
00000000 l    df *ABS*	00000000 int_errno.c
00000000 l    df *ABS*	00000000 memcmp.c
00000000 l    df *ABS*	00000000 putc.c
00000000 l    df *ABS*	00000000 strcmp.c
00000000 l    df *ABS*	00000000 strlen.c
00000000 l    df *ABS*	00000000 wbuf.c
00000000 l    df *ABS*	00000000 wsetup.c
00000000 l    df *ABS*	00000000 __atexit.c
00000000 l    df *ABS*	00000000 __call_atexit.c
000074fc l     F .text	00000004 register_fini
00000000 l    df *ABS*	00000000 fflush.c
00000000 l    df *ABS*	00000000 findfp.c
000078e0 l     F .text	00000058 std
000079ec l     F .text	00000008 __fp_lock
000079f4 l     F .text	00000008 __fp_unlock
00000000 l    df *ABS*	00000000 mallocr.c
00000000 l    df *ABS*	00000000 fwalk.c
00000000 l    df *ABS*	00000000 makebuf.c
00000000 l    df *ABS*	00000000 mallocr.c
00000000 l    df *ABS*	00000000 sbrkr.c
00000000 l    df *ABS*	00000000 stdio.c
00000000 l    df *ABS*	00000000 writer.c
00000000 l    df *ABS*	00000000 closer.c
00000000 l    df *ABS*	00000000 fclose.c
00000000 l    df *ABS*	00000000 fstatr.c
00000000 l    df *ABS*	00000000 isattyr.c
00000000 l    df *ABS*	00000000 lseekr.c
00000000 l    df *ABS*	00000000 readr.c
00000000 l    df *ABS*	00000000 alt_exit.c
00008fd0 l     F .text	00000040 alt_sim_halt
00000000 l    df *ABS*	00000000 alt_fstat.c
00009104 l     F .text	00000060 alt_get_errno
00000000 l    df *ABS*	00000000 alt_isatty.c
00009224 l     F .text	00000060 alt_get_errno
00000000 l    df *ABS*	00000000 alt_lseek.c
00009374 l     F .text	00000060 alt_get_errno
00000000 l    df *ABS*	00000000 alt_malloc_lock.c
00000000 l    df *ABS*	00000000 alt_read.c
00009534 l     F .text	00000060 alt_get_errno
00000000 l    df *ABS*	00000000 alt_sbrk.c
0000ba98 l     O .rwdata	00000004 heap_end
00000000 l    df *ABS*	00000000 alt_write.c
00009770 l     F .text	00000060 alt_get_errno
00008e70 g     F .text	00000070 _isatty_r
00001330 g     F .text	0000006c alt_main
000054e4 g     F .text	000003d0 alt_up_pixel_buffer_dma_draw_vline
00000570 g     F .text	00000060 interval_timer_ISR
00003d28 g     F .text	00000058 alt_up_ps2_disable_read_interrupt
003de2bc g     O .bss	00000100 alt_irq
00008ee0 g     F .text	00000078 _lseek_r
0000ba9c g       *ABS*	00000000 __flash_rwdata_start
00002ecc g     F .text	00000034 alt_up_character_lcd_send_cmd
0000d8a0 g     O .bss	00000001 byte2
000028bc g     F .text	00000070 alt_up_audio_read_fifo_avail
003de54c g       *ABS*	00000000 __alt_heap_start
0000292c g     F .text	00000070 alt_up_audio_record_r
0000d8a1 g     O .bss	00000001 byte3
00008aac g     F .text	00000068 __sseek
00007948 g     F .text	000000a4 __sinit
00007140 g     F .text	00000130 __swbuf_r
00004708 g     F .text	00000114 alt_up_char_buffer_string
00003b40 g     F .text	00000034 read_CE_bit
00007a48 g     F .text	00000068 __sfmoreglue
000093f4 g     F .text	00000020 __malloc_unlock
00003ed4 g     F .text	000000b0 alt_up_ps2_read_data_byte_timeout
00004410 g     F .text	00000090 alt_up_rs232_read_fd
00004638 g     F .text	000000d0 alt_up_char_buffer_draw
00002834 g     F .text	00000088 alt_up_audio_reset_audio_core
0000d8a2 g     O .bss	00000001 byte1
00007a38 g     F .text	00000010 _cleanup
000048b8 g     F .text	000001a0 alt_up_pixel_buffer_dma_draw
00000000  w      *UND*	00000000 __errno
00002e50 g     F .text	0000007c get_DDRAM_addr
00004878 g     F .text	00000040 alt_up_pixel_buffer_dma_open_dev
00000000 g     F .entry	0000001c __reset
00000020 g       *ABS*	00000000 __flash_exceptions_start
00008dfc g     F .text	00000074 _fstat_r
0000d8c8 g     O .bss	00000004 errno
000027f8 g     F .text	0000003c alt_up_audio_write_interrupt_pending
0000d8b8 g     O .bss	00000004 alt_argv
00013a64 g       *ABS*	00000000 _gp
00006980 g     F .text	00000030 usleep
00004a58 g     F .text	00000058 alt_up_pixel_buffer_dma_change_back_buffer_address
0000d900 g     O .bss	000000a0 average
0000b0dc g     O .rwdata	00000180 alt_fd_list
000062b8 g     F .text	00000094 alt_find_dev
00000f4c g     F .text	000000a0 memcpy
00003064 g     F .text	0000004c alt_up_character_lcd_write_fd
0000481c g     F .text	0000005c alt_up_char_buffer_clear
00007a2c g     F .text	0000000c _cleanup_r
00006440 g     F .text	00000078 alt_io_redirect
000097d4 g       *ABS*	00000000 __DTOR_END__
000039cc g     F .text	00000090 alt_up_irda_write_fd
0000439c g     F .text	00000074 alt_up_rs232_read_data
00002d90 g     F .text	00000060 alt_up_audio_read_fifo_head
00004b08 g     F .text	00000034 alt_up_pixel_buffer_dma_check_swap_buffers_status
000037b4 g     F .text	0000003c alt_up_irda_get_used_space_in_read_FIFO
000020e4 g     F .text	00000224 altera_avalon_jtag_uart_read
00000000  w      *UND*	00000000 malloc
00009164 g     F .text	000000c0 isatty
0000350c g     F .text	00000044 alt_up_ethernet_reg_write
00005194 g     F .text	00000350 alt_up_pixel_buffer_dma_draw_hline
0000375c g     F .text	00000058 alt_up_irda_disable_read_interrupt
00006cd4 g     F .text	00000090 alt_icache_flush
0000d8cc g     O .bss	00000004 __malloc_top_pad
0000d898 g     O .bss	00000004 flag
00008a34 g     F .text	00000070 _sbrk_r
003de2a0 g     O .bss	0000001c up_dev
00005978 g     F .text	000000d0 helper_plot_pixel
00008f58 g     F .text	00000078 _read_r
0000ba78 g     O .rwdata	00000004 alt_max_fd
00004304 g     F .text	00000050 alt_up_rs232_check_parity
00002df0 g     F .text	00000060 alt_up_audio_write_fifo_head
00003380 g     F .text	00000110 alt_up_ethernet_init
00008cd8 g     F .text	00000110 _fclose_r
00003b74 g     F .text	00000034 read_num_bytes_available
000078ac g     F .text	00000034 fflush
0000d8d0 g     O .bss	00000004 __malloc_max_sbrked_mem
00001084 g     F .text	000001c0 alt_irq_register
00003adc g     F .text	00000034 read_RI_bit
00004b3c g     F .text	00000164 alt_up_pixel_buffer_dma_clear_screen
00009284 g     F .text	000000f0 lseek
0000ba8c g     O .rwdata	00000004 _global_impure_ptr
003de54c g       *ABS*	00000000 __bss_end
00004ca0 g     F .text	000004f4 alt_up_pixel_buffer_dma_draw_box
00006874 g     F .text	0000010c alt_tick
0c000000 g       *ABS*	00000000 __alt_mem_Flash_flash_data
00002644 g     F .text	00000040 alt_up_audio_open_dev
00003bdc g     F .text	0000002c read_data_byte
00007a14 g     F .text	00000018 __fp_lock_all
00002a80 g     F .text	00000070 alt_up_audio_play_r
000067dc g     F .text	00000098 alt_alarm_stop
00003b10 g     F .text	00000030 read_RE_bit
0000d8b0 g     O .bss	00000004 alt_irq_active
000037f0 g     F .text	00000040 alt_up_irda_get_available_space_in_write_FIFO
000000ec g     F .exceptions	000000cc alt_irq_handler
0000b0b4 g     O .rwdata	00000028 alt_dev_null
0000334c g     F .text	00000034 alt_up_character_lcd_cursor_blink_on
00003a9c g     F .text	00000040 alt_up_parallel_port_open_dev
00003d80 g     F .text	00000078 alt_up_ps2_write_data_byte
00006094 g     F .text	0000001c alt_dcache_flush_all
000058b4 g     F .text	000000c4 alt_up_pixel_buffer_dma_draw_rectangle
0000ba9c g       *ABS*	00000000 __ram_rwdata_end
0000ba70 g     O .rwdata	00000008 alt_dev_list
00009650 g     F .text	00000120 write
00006f28 g     F .text	000000e8 _putc_r
00005a48 g     F .text	0000039c alt_up_pixel_buffer_dma_draw_line
00009ca0 g       *ABS*	00000000 __ram_rodata_end
00009030 g     F .text	000000d4 fstat
000044a0 g     F .text	00000094 alt_up_rs232_write_fd
00000000 g       *ABS*	00000000 __alt_mem_SDRAM
003de54c g       *ABS*	00000000 end
000040f4 g     F .text	000000a8 alt_up_ps2_write_fd
00003830 g     F .text	00000050 alt_up_irda_check_parity
00004574 g     F .text	00000084 alt_up_char_buffer_init
0000d9a0 g     O .bss	001e8480 r_buf
00001be8 g     F .text	000000b8 altera_avalon_jtag_uart_init
000097d0 g       *ABS*	00000000 __CTOR_LIST__
00800000 g       *ABS*	00000000 __alt_stack_pointer
00000d70 g     F .text	00000124 HEX_PS2
000025bc g     F .text	00000088 alt_avalon_timer_sc_init
00002308 g     F .text	00000240 altera_avalon_jtag_uart_write
00007938 g     F .text	00000004 __sfp_lock_acquire
00002f74 g     F .text	00000078 alt_up_character_lcd_write
00007ccc g     F .text	00000314 _free_r
0000139c g     F .text	00000258 alt_printf
00007500 g     F .text	000001b0 __call_exitprocs
0000ba94 g     O .rwdata	00000004 __malloc_sbrk_base
000001b8 g     F .text	0000003c _start
0000d8c0 g     O .bss	00000004 _alt_tick_rate
00002c64 g     F .text	0000012c alt_up_audio_write_fifo
0000d8c4 g     O .bss	00000004 _alt_nticks
0000d89c g     O .bss	00000004 flag1
00009414 g     F .text	00000120 read
00001668 g     F .text	00000400 alt_sys_init
000031d8 g     F .text	000000b0 alt_up_character_lcd_shift_display
00002b60 g     F .text	00000104 alt_up_audio_read_fifo
000073c8 g     F .text	00000134 __register_exitproc
0000276c g     F .text	00000050 alt_up_audio_disable_write_interrupt
00004000 g     F .text	00000058 alt_up_ps2_clear_fifo
000042c4 g     F .text	00000040 alt_up_rs232_get_available_space_in_write_FIFO
00003288 g     F .text	00000090 alt_up_character_lcd_erase_pos
00001f7c g     F .text	00000074 altera_avalon_jtag_uart_close
00009ca0 g       *ABS*	00000000 __ram_rwdata_start
000097d4 g       *ABS*	00000000 __ram_rodata_start
0000d8d8 g     O .bss	00000028 __malloc_current_mallinfo
00001aa0 g     F .text	00000058 altera_avalon_jtag_uart_read_fd
00006c1c g     F .text	000000b8 alt_get_fd
000069d0 g     F .text	0000012c alt_busy_sleep
00008c68 g     F .text	00000070 _close_r
00002720 g     F .text	0000004c alt_up_audio_enable_write_interrupt
00006db0 g     F .text	00000074 memcmp
00001b50 g     F .text	00000048 altera_avalon_jtag_uart_close_fd
003de54c g       *ABS*	00000000 __alt_stack_base
00001b98 g     F .text	00000050 altera_avalon_jtag_uart_ioctl_fd
00003708 g     F .text	00000054 alt_up_irda_enable_read_interrupt
0000728c g     F .text	0000013c __swsetup_r
000026d0 g     F .text	00000050 alt_up_audio_disable_read_interrupt
00007ab0 g     F .text	000000f0 __sfp
0000b65c g     O .rwdata	00000408 __malloc_av_
00007944 g     F .text	00000004 __sinit_lock_release
00008b90 g     F .text	00000060 __sread
00004230 g     F .text	00000058 alt_up_rs232_disable_read_interrupt
00006afc g     F .text	00000120 alt_find_file
000060dc g     F .text	000000b4 alt_dev_llist_insert
000093d4 g     F .text	00000020 __malloc_lock
00009594 g     F .text	000000bc sbrk
000076b0 g     F .text	000001fc _fflush_r
0000d898 g       *ABS*	00000000 __bss_start
00000fec g     F .text	00000098 memset
000005d0 g     F .text	000007a0 main
00002a0c g     F .text	00000074 alt_up_audio_write_fifo_space
0000d8bc g     O .bss	00000004 alt_envp
0000d8d4 g     O .bss	00000004 __malloc_max_total_mem
00004ab0 g     F .text	00000058 alt_up_pixel_buffer_dma_swap_buffers
000045f8 g     F .text	00000040 alt_up_char_buffer_open_dev
00001af8 g     F .text	00000058 altera_avalon_jtag_uart_write_fd
00007270 g     F .text	0000001c __swbuf
00003128 g     F .text	000000b0 alt_up_character_lcd_shift_cursor
00008aa4 g     F .text	00000008 __sclose
00800000 g       *ABS*	00000000 __alt_heap_limit
00008de8 g     F .text	00000014 fclose
00003f84 g     F .text	0000007c alt_up_ps2_read_data_byte
0000d8a4 g     O .bss	00000004 timeout
003de3bc g     O .bss	00000190 _atexit0
000082f4 g     F .text	00000740 _malloc_r
0000ba7c g     O .rwdata	00000004 alt_errno
000080a8 g     F .text	000000b8 _fwalk
00003880 g     F .text	00000048 alt_up_irda_write_data
0000419c g     F .text	00000040 alt_up_ps2_open_dev
00006e24 g     F .text	00000104 putc
00002f34 g     F .text	00000040 alt_up_character_lcd_open_dev
00007ba0 g     F .text	0000012c _malloc_trim_r
00003cd4 g     F .text	00000054 alt_up_ps2_enable_read_interrupt
000097d4 g       *ABS*	00000000 __CTOR_END__
00002f00 g     F .text	00000034 alt_up_character_lcd_init
00007010 g     F .text	000000bc strcmp
000097d4 g       *ABS*	00000000 __flash_rodata_start
000097d4 g       *ABS*	00000000 __DTOR_LIST__
00004534 g     F .text	00000040 alt_up_rs232_open_dev
00001634 g     F .text	00000034 alt_irq_init
0000677c g     F .text	00000060 alt_release_fd
00003ba8 g     F .text	00000034 read_data_valid
00003318 g     F .text	00000034 alt_up_character_lcd_cursor_off
00003e68 g     F .text	0000006c alt_up_ps2_write_data_byte_with_ack
00006d64 g     F .text	00000014 atexit
00008bf0 g     F .text	00000078 _write_r
00000e94 g     F .text	000000b8 pushbutton_ISR
000001f4 g     F .text	000000c4 PS2_ISR
0000ba88 g     O .rwdata	00000004 _impure_ptr
0000d8a8 g     O .bss	00000004 buf_index_play
0000d8b4 g     O .bss	00000004 alt_argc
00006254 g     F .text	00000064 _do_dtors
00000020 g       .exceptions	00000000 alt_irq_entry
000079fc g     F .text	00000018 __fp_unlock_all
0000ba68 g     O .rwdata	00000008 alt_fs_list
000041dc g     F .text	00000054 alt_up_rs232_enable_read_interrupt
0000299c g     F .text	00000070 alt_up_audio_record_l
00004354 g     F .text	00000048 alt_up_rs232_write_data
00003550 g     F .text	000000e0 alt_up_ethernet_phy_reg_read
00000020 g       *ABS*	00000000 __ram_exceptions_start
0000ba9c g       *ABS*	00000000 _edata
003de54c g       *ABS*	00000000 _end
000001b8 g       *ABS*	00000000 __ram_exceptions_end
00001ff0 g     F .text	000000f4 altera_avalon_jtag_uart_ioctl
000002b8 g     F .text	000002b8 audio_ISR
001f5e20 g     O .bss	001e8480 l_buf
00002af0 g     F .text	00000070 alt_up_audio_play_l
00008b14 g     F .text	0000007c __swrite
0000ba90 g     O .rwdata	00000004 __malloc_trim_threshold
000069b0 g     F .text	00000020 altera_nios2_qsys_irq_init
00006d78 g     F .text	00000038 exit
000038c8 g     F .text	00000074 alt_up_irda_read_data
00007fe0 g     F .text	000000c8 _fwalk_reent
00003c08 g     F .text	000000cc alt_up_ps2_init
00800000 g       *ABS*	00000000 __alt_data_end
00000020 g     F .exceptions	00000000 alt_exception
0000793c g     F .text	00000004 __sfp_lock_release
00002fec g     F .text	00000078 alt_up_character_lcd_string
00003a5c g     F .text	00000040 alt_up_irda_open_dev
00009010 g     F .text	00000020 _exit
00005de4 g     F .text	00000154 alt_alarm_start
00008160 g     F .text	00000194 __smakebuf_r
00003df8 g     F .text	00000070 alt_up_ps2_wait_for_ack
000070cc g     F .text	00000074 strlen
00003490 g     F .text	00000040 alt_up_ethernet_open_dev
00006594 g     F .text	00000188 open
000015f4 g     F .text	00000040 alt_putchar
0000d8ac g     O .bss	00000004 buf_index_record
0000634c g     F .text	00000030 alt_icache_flush_all
00003630 g     F .text	000000d8 alt_up_ethernet_phy_reg_write
000030b0 g     F .text	00000078 alt_up_character_lcd_set_cursor_pos
0000ba64 g     O .rwdata	00000004 alt_priority_mask
00004058 g     F .text	0000009c alt_up_ps2_read_fd
0000393c g     F .text	00000090 alt_up_irda_read_fd
0000ba80 g     O .rwdata	00000008 alt_alarm_list
000061f0 g     F .text	00000064 _do_ctors
00004288 g     F .text	0000003c alt_up_rs232_get_used_space_in_read_FIFO
00005f38 g     F .text	000000fc close
00001244 g     F .text	00000080 alt_load
000034d0 g     F .text	0000003c alt_up_ethernet_reg_read
00002684 g     F .text	0000004c alt_up_audio_enable_read_interrupt
00000000  w      *UND*	00000000 free
00007940 g     F .text	00000004 __sinit_lock_acquire
000027bc g     F .text	0000003c alt_up_audio_read_interrupt_pending



Disassembly of section .entry:

00000000 <__reset>:
#if NIOS2_ICACHE_SIZE > 0 && defined(ALT_ALLOW_CODE_AT_RESET) && !defined(ALT_SIM_OPTIMIZE)
    /* Assume the instruction cache size is always a power of two. */
#if NIOS2_ICACHE_SIZE > 0x8000
    movhi r2, %hi(NIOS2_ICACHE_SIZE)
#else
    movui r2, NIOS2_ICACHE_SIZE
   0:	00840014 	movui	r2,4096
#endif

0:
    initi r2
   4:	1001483a 	initi	r2
    addi r2, r2, -NIOS2_ICACHE_LINE_SIZE
   8:	10bff804 	addi	r2,r2,-32
    bgt r2, zero, 0b
   c:	00bffd16 	blt	zero,r2,4 <__reset+0x4>
 * Jump to the _start entry point in the .text section if reset code
 * is allowed or if optimizing for RTL simulation.
 */
#if defined(ALT_ALLOW_CODE_AT_RESET) || defined(ALT_SIM_OPTIMIZE)
    /* Jump to the _start entry point in the .text section. */
    movhi r1, %hi(_start)
  10:	00400034 	movhi	at,0
    ori r1, r1, %lo(_start)
  14:	08406e14 	ori	at,at,440
    jmp r1
  18:	0800683a 	jmp	at
  1c:	00000000 	call	0 <__reset>

Disassembly of section .exceptions:

00000020 <alt_exception>:
         * Process an exception.  For all exceptions we must preserve all
         * caller saved registers on the stack (See the Nios2 ABI
         * documentation for details).
         */

        addi  sp, sp, -76
  20:	deffed04 	addi	sp,sp,-76

#endif

#endif

        stw   ra,  0(sp)
  24:	dfc00015 	stw	ra,0(sp)
        /*
         * Leave a gap in the stack frame at 4(sp) for the muldiv handler to
         * store zero into.
         */

        stw   r1,   8(sp)
  28:	d8400215 	stw	at,8(sp)
        stw   r2,  12(sp)
  2c:	d8800315 	stw	r2,12(sp)
        stw   r3,  16(sp)
  30:	d8c00415 	stw	r3,16(sp)
        stw   r4,  20(sp)
  34:	d9000515 	stw	r4,20(sp)
        stw   r5,  24(sp)
  38:	d9400615 	stw	r5,24(sp)
        stw   r6,  28(sp)
  3c:	d9800715 	stw	r6,28(sp)
        stw   r7,  32(sp)
  40:	d9c00815 	stw	r7,32(sp)

        rdctl r5, estatus
  44:	000b307a 	rdctl	r5,estatus

        stw   r8,  36(sp)
  48:	da000915 	stw	r8,36(sp)
        stw   r9,  40(sp)
  4c:	da400a15 	stw	r9,40(sp)
        stw   r10, 44(sp)
  50:	da800b15 	stw	r10,44(sp)
        stw   r11, 48(sp)
  54:	dac00c15 	stw	r11,48(sp)
        stw   r12, 52(sp)
  58:	db000d15 	stw	r12,52(sp)
        stw   r13, 56(sp)
  5c:	db400e15 	stw	r13,56(sp)
        stw   r14, 60(sp)
  60:	db800f15 	stw	r14,60(sp)
        stw   r15, 64(sp)
  64:	dbc01015 	stw	r15,64(sp)
        /*
         * ea-4 contains the address of the instruction being executed
         * when the exception occured. For interrupt exceptions, we will
         * will be re-issue the isntruction. Store it in 72(sp)
         */
        stw   r5,  68(sp)  /* estatus */
  68:	d9401115 	stw	r5,68(sp)
        addi  r15, ea, -4  /* instruction that caused exception */
  6c:	ebffff04 	addi	r15,ea,-4
        stw   r15,  72(sp)
  70:	dbc01215 	stw	r15,72(sp)
#else
        /*
         * Test to see if the exception was a software exception or caused 
         * by an external interrupt, and vector accordingly.
         */
        rdctl r4, ipending
  74:	0009313a 	rdctl	r4,ipending
        andi  r2, r5, 1
  78:	2880004c 	andi	r2,r5,1
        beq   r2, zero, .Lnot_irq
  7c:	10000326 	beq	r2,zero,8c <alt_exception+0x6c>
        beq   r4, zero, .Lnot_irq
  80:	20000226 	beq	r4,zero,8c <alt_exception+0x6c>
        /*
         * Now that all necessary registers have been preserved, call 
         * alt_irq_handler() to process the interrupts.
         */

        call alt_irq_handler
  84:	00000ec0 	call	ec <alt_irq_handler>

        .section .exceptions.irqreturn, "xa"

        br    .Lexception_exit
  88:	00000306 	br	98 <alt_exception+0x78>
         * upon completion, so we write ea (address of instruction *after*
         * the one where the exception occured) into 72(sp). The actual
         * instruction that caused the exception is written in r2, which these
         * handlers will utilize.
         */
        stw   ea,  72(sp)  /* Don't re-issue */
  8c:	df401215 	stw	ea,72(sp)
        ldw   r2, -4(ea)   /* Instruction that caused exception */
  90:	e8bfff17 	ldw	r2,-4(ea)
#ifdef NIOS2_HAS_DEBUG_STUB
       /*
        *  Either tell the user now (if there is a debugger attached) or go into
        *  the debug monitor which will loop until a debugger is attached.
        */
        break
  94:	003da03a 	break	0
        /* 
         * Restore the saved registers, so that all general purpose registers 
         * have been restored to their state at the time the interrupt occured.
         */

        ldw   r5,  68(sp)
  98:	d9401117 	ldw	r5,68(sp)
        ldw   ea,  72(sp)  /* This becomes the PC once eret is executed */
  9c:	df401217 	ldw	ea,72(sp)
        ldw   ra,   0(sp)
  a0:	dfc00017 	ldw	ra,0(sp)

        wrctl estatus, r5
  a4:	2801707a 	wrctl	estatus,r5

        ldw   r1,   8(sp)
  a8:	d8400217 	ldw	at,8(sp)
        ldw   r2,  12(sp)
  ac:	d8800317 	ldw	r2,12(sp)
        ldw   r3,  16(sp)
  b0:	d8c00417 	ldw	r3,16(sp)
        ldw   r4,  20(sp)
  b4:	d9000517 	ldw	r4,20(sp)
        ldw   r5,  24(sp)
  b8:	d9400617 	ldw	r5,24(sp)
        ldw   r6,  28(sp)
  bc:	d9800717 	ldw	r6,28(sp)
        ldw   r7,  32(sp)
  c0:	d9c00817 	ldw	r7,32(sp)
#ifdef ALT_STACK_CHECK
        ldw   et, %gprel(alt_exception_old_stack_limit)(gp)
#endif
#endif

        ldw   r8,  36(sp)
  c4:	da000917 	ldw	r8,36(sp)
        ldw   r9,  40(sp)
  c8:	da400a17 	ldw	r9,40(sp)
        ldw   r10, 44(sp)
  cc:	da800b17 	ldw	r10,44(sp)
        ldw   r11, 48(sp)
  d0:	dac00c17 	ldw	r11,48(sp)
        ldw   r12, 52(sp)
  d4:	db000d17 	ldw	r12,52(sp)
        ldw   r13, 56(sp)
  d8:	db400e17 	ldw	r13,56(sp)
        ldw   r14, 60(sp)
  dc:	db800f17 	ldw	r14,60(sp)
        ldw   r15, 64(sp)
  e0:	dbc01017 	ldw	r15,64(sp)
#endif

        ldw   sp,  76(sp)

#else
        addi  sp, sp, 76
  e4:	dec01304 	addi	sp,sp,76

        /*
         * Return to the interrupted instruction.
         */

        eret
  e8:	ef80083a 	eret

000000ec <alt_irq_handler>:
 * instruction is present if the macro ALT_CI_INTERRUPT_VECTOR defined.
 */

void alt_irq_handler (void) __attribute__ ((section (".exceptions")));
void alt_irq_handler (void)
{
  ec:	defff904 	addi	sp,sp,-28
  f0:	dfc00615 	stw	ra,24(sp)
  f4:	df000515 	stw	fp,20(sp)
  f8:	df000504 	addi	fp,sp,20
#ifndef NIOS2_EIC_PRESENT
static ALT_INLINE alt_u32 ALT_ALWAYS_INLINE alt_irq_pending (void)
{
  alt_u32 active;

  NIOS2_READ_IPENDING (active);
  fc:	0005313a 	rdctl	r2,ipending
 100:	e0bffc15 	stw	r2,-16(fp)

  return active;
 104:	e0bffc17 	ldw	r2,-16(fp)
   * Consider the case where the high priority interupt is asserted during
   * the interrupt entry sequence for a lower priority interrupt to see why
   * this is the case.
   */

  active = alt_irq_pending ();
 108:	e0bfff15 	stw	r2,-4(fp)

  do
  {
    i = 0;
 10c:	e03ffd15 	stw	zero,-12(fp)
    mask = 1;
 110:	00800044 	movi	r2,1
 114:	e0bffe15 	stw	r2,-8(fp)
     * called to clear the interrupt condition.
     */

    do
    {
      if (active & mask)
 118:	e0ffff17 	ldw	r3,-4(fp)
 11c:	e0bffe17 	ldw	r2,-8(fp)
 120:	1884703a 	and	r2,r3,r2
 124:	1005003a 	cmpeq	r2,r2,zero
 128:	1000171e 	bne	r2,zero,188 <alt_irq_handler+0x9c>
      { 
#ifdef ALT_ENHANCED_INTERRUPT_API_PRESENT
        alt_irq[i].handler(alt_irq[i].context); 
#else
        alt_irq[i].handler(alt_irq[i].context, i); 
 12c:	e0bffd17 	ldw	r2,-12(fp)
 130:	00c00fb4 	movhi	r3,62
 134:	18f8af04 	addi	r3,r3,-7492
 138:	100490fa 	slli	r2,r2,3
 13c:	10c5883a 	add	r2,r2,r3
 140:	11800017 	ldw	r6,0(r2)
 144:	e0bffd17 	ldw	r2,-12(fp)
 148:	00c00fb4 	movhi	r3,62
 14c:	18f8af04 	addi	r3,r3,-7492
 150:	100490fa 	slli	r2,r2,3
 154:	10c5883a 	add	r2,r2,r3
 158:	10800104 	addi	r2,r2,4
 15c:	11000017 	ldw	r4,0(r2)
 160:	e17ffd17 	ldw	r5,-12(fp)
 164:	303ee83a 	callr	r6
#ifndef NIOS2_EIC_PRESENT
static ALT_INLINE alt_u32 ALT_ALWAYS_INLINE alt_irq_pending (void)
{
  alt_u32 active;

  NIOS2_READ_IPENDING (active);
 168:	0005313a 	rdctl	r2,ipending
 16c:	e0bffb15 	stw	r2,-20(fp)

  return active;
 170:	e0bffb17 	ldw	r2,-20(fp)
      mask <<= 1;
      i++;

    } while (1);

    active = alt_irq_pending ();
 174:	e0bfff15 	stw	r2,-4(fp)
    
  } while (active);
 178:	e0bfff17 	ldw	r2,-4(fp)
 17c:	1004c03a 	cmpne	r2,r2,zero
 180:	103fe21e 	bne	r2,zero,10c <alt_irq_handler+0x20>
 184:	00000706 	br	1a4 <alt_irq_handler+0xb8>
#else
        alt_irq[i].handler(alt_irq[i].context, i); 
#endif
        break;
      }
      mask <<= 1;
 188:	e0bffe17 	ldw	r2,-8(fp)
 18c:	1085883a 	add	r2,r2,r2
 190:	e0bffe15 	stw	r2,-8(fp)
      i++;
 194:	e0bffd17 	ldw	r2,-12(fp)
 198:	10800044 	addi	r2,r2,1
 19c:	e0bffd15 	stw	r2,-12(fp)

    } while (1);
 1a0:	003fdd06 	br	118 <alt_irq_handler+0x2c>
  /*
   * Notify the operating system that interrupt processing is complete.
   */ 

  ALT_OS_INT_EXIT();
}
 1a4:	e037883a 	mov	sp,fp
 1a8:	dfc00117 	ldw	ra,4(sp)
 1ac:	df000017 	ldw	fp,0(sp)
 1b0:	dec00204 	addi	sp,sp,8
 1b4:	f800283a 	ret

Disassembly of section .text:

000001b8 <_start>:
#if (NIOS2_NUM_OF_SHADOW_REG_SETS == 0)    
    /*
     * Now that the caches are initialized, set up the stack pointer.
     * The value provided by the linker is assumed to be correctly aligned.
     */
    movhi sp, %hi(__alt_stack_pointer)
     1b8:	06c02034 	movhi	sp,128
    ori sp, sp, %lo(__alt_stack_pointer)
     1bc:	dec00014 	ori	sp,sp,0

    /* Set up the global pointer. */
    movhi gp, %hi(_gp)
     1c0:	06800074 	movhi	gp,1
    ori gp, gp, %lo(_gp)
     1c4:	d68e9914 	ori	gp,gp,14948
 */
#ifndef ALT_SIM_OPTIMIZE
    /* Log that the BSS is about to be cleared. */
    ALT_LOG_PUTS(alt_log_msg_bss)

    movhi r2, %hi(__bss_start)
     1c8:	00800034 	movhi	r2,0
    ori r2, r2, %lo(__bss_start)
     1cc:	10b62614 	ori	r2,r2,55448

    movhi r3, %hi(__bss_end)
     1d0:	00c00f74 	movhi	r3,61
    ori r3, r3, %lo(__bss_end)
     1d4:	18f95314 	ori	r3,r3,58700

    beq r2, r3, 1f
     1d8:	10c00326 	beq	r2,r3,1e8 <_start+0x30>

0:
    stw zero, (r2)
     1dc:	10000015 	stw	zero,0(r2)
    addi r2, r2, 4
     1e0:	10800104 	addi	r2,r2,4
    bltu r2, r3, 0b
     1e4:	10fffd36 	bltu	r2,r3,1dc <_start+0x24>
     * section aren't defined until alt_load() has been called).
     */
    mov   et, zero
#endif

    call alt_load
     1e8:	00012440 	call	1244 <alt_load>

    /* Log that alt_main is about to be called. */
    ALT_LOG_PUTS(alt_log_msg_alt_main)

    /* Call the C entry point. It should never return. */
    call alt_main
     1ec:	00013300 	call	1330 <alt_main>

000001f0 <alt_after_alt_main>:

    /* Wait in infinite loop in case alt_main does return. */
alt_after_alt_main:
    br alt_after_alt_main
     1f0:	003fff06 	br	1f0 <alt_after_alt_main>

000001f4 <PS2_ISR>:
 * This routine checks which KEY has been pressed. If it is KEY1 or KEY2, it writes this 
 * value to the global variable key_pressed. If it is KEY3 then it loads the SW switch 
 * values and stores in the variable pattern
****************************************************************************************/
void PS2_ISR(struct alt_up_dev *up_dev, unsigned int id)
{
     1f4:	defffb04 	addi	sp,sp,-20
     1f8:	dfc00415 	stw	ra,16(sp)
     1fc:	df000315 	stw	fp,12(sp)
     200:	df000304 	addi	fp,sp,12
     204:	e13ffe15 	stw	r4,-8(fp)
     208:	e17fff15 	stw	r5,-4(fp)
	unsigned char PS2_data;

	/* check for PS/2 data--display on HEX displays */
	if (alt_up_ps2_read_data_byte (up_dev->PS2_dev, &PS2_data) == 0)
     20c:	e0bffe17 	ldw	r2,-8(fp)
     210:	11000217 	ldw	r4,8(r2)
     214:	e17ffd04 	addi	r5,fp,-12
     218:	0003f840 	call	3f84 <alt_up_ps2_read_data_byte>
     21c:	1004c03a 	cmpne	r2,r2,zero
     220:	1000201e 	bne	r2,zero,2a4 <PS2_ISR+0xb0>
	{
		/* allows save the last three bytes of data */
		byte1 = byte2;
     224:	00800074 	movhi	r2,1
     228:	10b62804 	addi	r2,r2,-10080
     22c:	10c00003 	ldbu	r3,0(r2)
     230:	00800074 	movhi	r2,1
     234:	10b62884 	addi	r2,r2,-10078
     238:	10c00005 	stb	r3,0(r2)
		byte2 = byte3;
     23c:	00800074 	movhi	r2,1
     240:	10b62844 	addi	r2,r2,-10079
     244:	10c00003 	ldbu	r3,0(r2)
     248:	00800074 	movhi	r2,1
     24c:	10b62804 	addi	r2,r2,-10080
     250:	10c00005 	stb	r3,0(r2)
		byte3 = PS2_data;
     254:	e0fffd03 	ldbu	r3,-12(fp)
     258:	00800074 	movhi	r2,1
     25c:	10b62844 	addi	r2,r2,-10079
     260:	10c00005 	stb	r3,0(r2)
		if ( (byte2 == (unsigned char) 0xAA) && (byte3 == (unsigned char) 0x00) )
     264:	00800074 	movhi	r2,1
     268:	10b62804 	addi	r2,r2,-10080
     26c:	10800003 	ldbu	r2,0(r2)
     270:	10803fcc 	andi	r2,r2,255
     274:	10802a98 	cmpnei	r2,r2,170
     278:	10000a1e 	bne	r2,zero,2a4 <PS2_ISR+0xb0>
     27c:	00800074 	movhi	r2,1
     280:	10b62844 	addi	r2,r2,-10079
     284:	10800003 	ldbu	r2,0(r2)
     288:	10803fcc 	andi	r2,r2,255
     28c:	1004c03a 	cmpne	r2,r2,zero
     290:	1000041e 	bne	r2,zero,2a4 <PS2_ISR+0xb0>
			// mouse inserted; initialize sending of data
			(void) alt_up_ps2_write_data_byte (up_dev->PS2_dev, (unsigned char) 0xF4);
     294:	e0bffe17 	ldw	r2,-8(fp)
     298:	11000217 	ldw	r4,8(r2)
     29c:	01403d04 	movi	r5,244
     2a0:	0003d800 	call	3d80 <alt_up_ps2_write_data_byte>
	}
	return;
}
     2a4:	e037883a 	mov	sp,fp
     2a8:	dfc00117 	ldw	ra,4(sp)
     2ac:	df000017 	ldw	fp,0(sp)
     2b0:	dec00204 	addi	sp,sp,8
     2b4:	f800283a 	ret

000002b8 <audio_ISR>:
 *                                                                          
 * This interrupt service routine records or plays back audio, depending on which type
 * interrupt (read or write) is pending in the audio device.
****************************************************************************************/
void audio_ISR(struct alt_up_dev *up_dev, unsigned int id)
{
     2b8:	defff804 	addi	sp,sp,-32
     2bc:	dfc00715 	stw	ra,28(sp)
     2c0:	df000615 	stw	fp,24(sp)
     2c4:	df000604 	addi	fp,sp,24
     2c8:	e13ffe15 	stw	r4,-8(fp)
     2cc:	e17fff15 	stw	r5,-4(fp)
	int num_read; int num_written;

	unsigned int fifospace;
	int k;
		
	if (alt_up_audio_read_interrupt_pending(up_dev->audio_dev))	// check for read interrupt
     2d0:	e0bffe17 	ldw	r2,-8(fp)
     2d4:	11000417 	ldw	r4,16(r2)
     2d8:	00027bc0 	call	27bc <alt_up_audio_read_interrupt_pending>
     2dc:	1005003a 	cmpeq	r2,r2,zero
     2e0:	1000541e 	bne	r2,zero,434 <audio_ISR+0x17c>
	{
		alt_up_parallel_port_write_data (up_dev->green_LEDs_dev, 0x1); // set LEDG[0] on
     2e4:	e0bffe17 	ldw	r2,-8(fp)
     2e8:	10800117 	ldw	r2,4(r2)
     2ec:	10800a17 	ldw	r2,40(r2)
     2f0:	1007883a 	mov	r3,r2
     2f4:	00800044 	movi	r2,1
     2f8:	18800035 	stwio	r2,0(r3)

		// store data until the buffer is full
		if (buf_index_record < BUF_SIZE)
     2fc:	00800074 	movhi	r2,1
     300:	10b62b04 	addi	r2,r2,-10068
     304:	10c00017 	ldw	r3,0(r2)
     308:	00800234 	movhi	r2,8
     30c:	10a847c4 	addi	r2,r2,-24289
     310:	10c04816 	blt	r2,r3,434 <audio_ISR+0x17c>
		{
			num_read = alt_up_audio_record_r (up_dev->audio_dev, &(r_buf[buf_index_record]), 
     314:	e0bffe17 	ldw	r2,-8(fp)
     318:	11000417 	ldw	r4,16(r2)
     31c:	00800074 	movhi	r2,1
     320:	10b62b04 	addi	r2,r2,-10068
     324:	10800017 	ldw	r2,0(r2)
     328:	1085883a 	add	r2,r2,r2
     32c:	1085883a 	add	r2,r2,r2
     330:	1007883a 	mov	r3,r2
     334:	00800074 	movhi	r2,1
     338:	10b66804 	addi	r2,r2,-9824
     33c:	1885883a 	add	r2,r3,r2
     340:	100b883a 	mov	r5,r2
     344:	00800074 	movhi	r2,1
     348:	10b62b04 	addi	r2,r2,-10068
     34c:	10c00017 	ldw	r3,0(r2)
     350:	00800234 	movhi	r2,8
     354:	10a84804 	addi	r2,r2,-24288
     358:	10cdc83a 	sub	r6,r2,r3
     35c:	000292c0 	call	292c <alt_up_audio_record_r>
     360:	e0bffd15 	stw	r2,-12(fp)
				BUF_SIZE - buf_index_record);
			/* assume we can read same # words from the left and right */
			(void) alt_up_audio_record_l (up_dev->audio_dev, &(l_buf[buf_index_record]), 
     364:	e0bffe17 	ldw	r2,-8(fp)
     368:	11000417 	ldw	r4,16(r2)
     36c:	00800074 	movhi	r2,1
     370:	10b62b04 	addi	r2,r2,-10068
     374:	10800017 	ldw	r2,0(r2)
     378:	1085883a 	add	r2,r2,r2
     37c:	1085883a 	add	r2,r2,r2
     380:	1007883a 	mov	r3,r2
     384:	008007f4 	movhi	r2,31
     388:	10978804 	addi	r2,r2,24096
     38c:	1885883a 	add	r2,r3,r2
     390:	100b883a 	mov	r5,r2
     394:	e1bffd17 	ldw	r6,-12(fp)
     398:	000299c0 	call	299c <alt_up_audio_record_l>
				num_read);
			buf_index_record += num_read;
     39c:	00800074 	movhi	r2,1
     3a0:	10b62b04 	addi	r2,r2,-10068
     3a4:	10c00017 	ldw	r3,0(r2)
     3a8:	e0bffd17 	ldw	r2,-12(fp)
     3ac:	1887883a 	add	r3,r3,r2
     3b0:	00800074 	movhi	r2,1
     3b4:	10b62b04 	addi	r2,r2,-10068
     3b8:	10c00015 	stw	r3,0(r2)

			if (buf_index_record == BUF_SIZE)
     3bc:	00800074 	movhi	r2,1
     3c0:	10b62b04 	addi	r2,r2,-10068
     3c4:	10c00017 	ldw	r3,0(r2)
     3c8:	00800234 	movhi	r2,8
     3cc:	10a84804 	addi	r2,r2,-24288
     3d0:	1880181e 	bne	r3,r2,434 <audio_ISR+0x17c>
			{
				// done recording
				for (k=0;k<N;k++)
     3d4:	e03ffa15 	stw	zero,-24(fp)
     3d8:	00000a06 	br	404 <audio_ISR+0x14c>
					average[k]=0;
     3dc:	e0bffa17 	ldw	r2,-24(fp)
     3e0:	00c00074 	movhi	r3,1
     3e4:	18f64004 	addi	r3,r3,-9984
     3e8:	100490fa 	slli	r2,r2,3
     3ec:	10c5883a 	add	r2,r2,r3
     3f0:	10000015 	stw	zero,0(r2)
     3f4:	10000115 	stw	zero,4(r2)
			buf_index_record += num_read;

			if (buf_index_record == BUF_SIZE)
			{
				// done recording
				for (k=0;k<N;k++)
     3f8:	e0bffa17 	ldw	r2,-24(fp)
     3fc:	10800044 	addi	r2,r2,1
     400:	e0bffa15 	stw	r2,-24(fp)
     404:	e0bffa17 	ldw	r2,-24(fp)
     408:	10800510 	cmplti	r2,r2,20
     40c:	103ff31e 	bne	r2,zero,3dc <audio_ISR+0x124>
					average[k]=0;
				flag=1;
     410:	00800044 	movi	r2,1
     414:	d0a78d15 	stw	r2,-25036(gp)
				alt_up_parallel_port_write_data (up_dev->green_LEDs_dev, 0); // turn off LEDG
     418:	e0bffe17 	ldw	r2,-8(fp)
     41c:	10800117 	ldw	r2,4(r2)
     420:	10800a17 	ldw	r2,40(r2)
     424:	10000035 	stwio	zero,0(r2)
				alt_up_audio_disable_read_interrupt(up_dev->audio_dev);
     428:	e0bffe17 	ldw	r2,-8(fp)
     42c:	11000417 	ldw	r4,16(r2)
     430:	00026d00 	call	26d0 <alt_up_audio_disable_read_interrupt>
			}
		}
	}
	if (alt_up_audio_write_interrupt_pending(up_dev->audio_dev))	// check for write interrupt
     434:	e0bffe17 	ldw	r2,-8(fp)
     438:	11000417 	ldw	r4,16(r2)
     43c:	00027f80 	call	27f8 <alt_up_audio_write_interrupt_pending>
     440:	1005003a 	cmpeq	r2,r2,zero
     444:	1000451e 	bne	r2,zero,55c <audio_ISR+0x2a4>
	{
		alt_up_parallel_port_write_data (up_dev->green_LEDs_dev, 0x2); // set LEDG[1] on
     448:	e0bffe17 	ldw	r2,-8(fp)
     44c:	10800117 	ldw	r2,4(r2)
     450:	10800a17 	ldw	r2,40(r2)
     454:	1007883a 	mov	r3,r2
     458:	00800084 	movi	r2,2
     45c:	18800035 	stwio	r2,0(r3)
		flag1=1;
     460:	00800044 	movi	r2,1
     464:	d0a78e15 	stw	r2,-25032(gp)
		// output data until the buffer is empty 
		if (buf_index_play < BUF_SIZE)
     468:	00800074 	movhi	r2,1
     46c:	10b62a04 	addi	r2,r2,-10072
     470:	10c00017 	ldw	r3,0(r2)
     474:	00800234 	movhi	r2,8
     478:	10a847c4 	addi	r2,r2,-24289
     47c:	10c03716 	blt	r2,r3,55c <audio_ISR+0x2a4>
		{
			num_written = alt_up_audio_play_r (up_dev->audio_dev, &(r_buf[buf_index_play]), 
     480:	e0bffe17 	ldw	r2,-8(fp)
     484:	11000417 	ldw	r4,16(r2)
     488:	00800074 	movhi	r2,1
     48c:	10b62a04 	addi	r2,r2,-10072
     490:	10800017 	ldw	r2,0(r2)
     494:	1085883a 	add	r2,r2,r2
     498:	1085883a 	add	r2,r2,r2
     49c:	1007883a 	mov	r3,r2
     4a0:	00800074 	movhi	r2,1
     4a4:	10b66804 	addi	r2,r2,-9824
     4a8:	1885883a 	add	r2,r3,r2
     4ac:	100b883a 	mov	r5,r2
     4b0:	00800074 	movhi	r2,1
     4b4:	10b62a04 	addi	r2,r2,-10072
     4b8:	10c00017 	ldw	r3,0(r2)
     4bc:	00800234 	movhi	r2,8
     4c0:	10a84804 	addi	r2,r2,-24288
     4c4:	10cdc83a 	sub	r6,r2,r3
     4c8:	0002a800 	call	2a80 <alt_up_audio_play_r>
     4cc:	e0bffc15 	stw	r2,-16(fp)
			 	BUF_SIZE - buf_index_play);
			/* assume that we can write the same # words to the left and right */
			(void) alt_up_audio_play_l (up_dev->audio_dev, &(l_buf[buf_index_play]), 
     4d0:	e0bffe17 	ldw	r2,-8(fp)
     4d4:	11000417 	ldw	r4,16(r2)
     4d8:	00800074 	movhi	r2,1
     4dc:	10b62a04 	addi	r2,r2,-10072
     4e0:	10800017 	ldw	r2,0(r2)
     4e4:	1085883a 	add	r2,r2,r2
     4e8:	1085883a 	add	r2,r2,r2
     4ec:	1007883a 	mov	r3,r2
     4f0:	008007f4 	movhi	r2,31
     4f4:	10978804 	addi	r2,r2,24096
     4f8:	1885883a 	add	r2,r3,r2
     4fc:	100b883a 	mov	r5,r2
     500:	e1bffc17 	ldw	r6,-16(fp)
     504:	0002af00 	call	2af0 <alt_up_audio_play_l>
				num_written);
			buf_index_play += num_written;
     508:	00800074 	movhi	r2,1
     50c:	10b62a04 	addi	r2,r2,-10072
     510:	10c00017 	ldw	r3,0(r2)
     514:	e0bffc17 	ldw	r2,-16(fp)
     518:	1887883a 	add	r3,r3,r2
     51c:	00800074 	movhi	r2,1
     520:	10b62a04 	addi	r2,r2,-10072
     524:	10c00015 	stw	r3,0(r2)
	
			if (buf_index_play == BUF_SIZE)
     528:	00800074 	movhi	r2,1
     52c:	10b62a04 	addi	r2,r2,-10072
     530:	10c00017 	ldw	r3,0(r2)
     534:	00800234 	movhi	r2,8
     538:	10a84804 	addi	r2,r2,-24288
     53c:	1880071e 	bne	r3,r2,55c <audio_ISR+0x2a4>
			{
				// done playback
				alt_up_parallel_port_write_data (up_dev->green_LEDs_dev, 0); // turn off LEDG
     540:	e0bffe17 	ldw	r2,-8(fp)
     544:	10800117 	ldw	r2,4(r2)
     548:	10800a17 	ldw	r2,40(r2)
     54c:	10000035 	stwio	zero,0(r2)
				alt_up_audio_disable_write_interrupt(up_dev->audio_dev);
     550:	e0bffe17 	ldw	r2,-8(fp)
     554:	11000417 	ldw	r4,16(r2)
     558:	000276c0 	call	276c <alt_up_audio_disable_write_interrupt>
			}
		}
	}
	return;
}
     55c:	e037883a 	mov	sp,fp
     560:	dfc00117 	ldw	ra,4(sp)
     564:	df000017 	ldw	fp,0(sp)
     568:	dec00204 	addi	sp,sp,8
     56c:	f800283a 	ret

00000570 <interval_timer_ISR>:
 * Shifts a PATTERN being displayed on the LCD character display. The shift 
 * direction is determined by the external variable KEY_PRESSED.
 * 
******************************************************************************/
void interval_timer_ISR(struct alt_up_dev *up_dev, unsigned int id)
{
     570:	defffb04 	addi	sp,sp,-20
     574:	dfc00415 	stw	ra,16(sp)
     578:	df000315 	stw	fp,12(sp)
     57c:	df000304 	addi	fp,sp,12
     580:	e13ffe15 	stw	r4,-8(fp)
     584:	e17fff15 	stw	r5,-4(fp)
	volatile int *interval_timer_ptr = (int *) 0x10002000;
     588:	00840034 	movhi	r2,4096
     58c:	10880004 	addi	r2,r2,8192
     590:	e0bffd15 	stw	r2,-12(fp)

	*(interval_timer_ptr) = 0; 										// clear the interrupt
     594:	e0bffd17 	ldw	r2,-12(fp)
     598:	10000015 	stw	zero,0(r2)
	timeout = 1;															// set global variable
     59c:	00c00074 	movhi	r3,1
     5a0:	18f62904 	addi	r3,r3,-10076
     5a4:	00800044 	movi	r2,1
     5a8:	18800015 	stw	r2,0(r3)

	/* shift the LCD display to the left */
	alt_up_character_lcd_shift_display (up_dev->lcd_dev, -1);
     5ac:	e0bffe17 	ldw	r2,-8(fp)
     5b0:	11000317 	ldw	r4,12(r2)
     5b4:	017fffc4 	movi	r5,-1
     5b8:	00031d80 	call	31d8 <alt_up_character_lcd_shift_display>

	return;
}
     5bc:	e037883a 	mov	sp,fp
     5c0:	dfc00117 	ldw	ra,4(sp)
     5c4:	df000017 	ldw	fp,0(sp)
     5c8:	dec00204 	addi	sp,sp,8
     5cc:	f800283a 	ret

000005d0 <main>:
 * 	   interrupts
 * 	6. The speed of scrolling the LCD display and of refreshing the VGA screen
 * 	   are controlled by interrupts from the interval timer
********************************************************************************/
int main(void)
{
     5d0:	deffb904 	addi	sp,sp,-284
     5d4:	dfc04615 	stw	ra,280(sp)
     5d8:	df004515 	stw	fp,276(sp)
     5dc:	df004504 	addi	fp,sp,276
	alt_up_character_lcd_dev *lcd_dev;
	alt_up_audio_dev *audio_dev;
	alt_up_char_buffer_dev *char_buffer_dev;
	alt_up_pixel_buffer_dma_dev *pixel_buffer_dev;
	/* declare volatile pointer for interval timer, which does not have HAL functions */
	volatile int * interval_timer_ptr = (int *) 0x10002000;	// interal timer base address
     5e0:	00840034 	movhi	r2,4096
     5e4:	10880004 	addi	r2,r2,8192
     5e8:	e0bfd015 	stw	r2,-192(fp)
	int i,j;
	int k=(320/N)-2;
     5ec:	00800384 	movi	r2,14
     5f0:	e0bfcd15 	stw	r2,-204(fp)

	/* initialize some variables */
	byte1 = 0; byte2 = 0; byte3 = 0; 			// used to hold PS/2 data
     5f4:	00800074 	movhi	r2,1
     5f8:	10b62884 	addi	r2,r2,-10078
     5fc:	10000005 	stb	zero,0(r2)
     600:	00800074 	movhi	r2,1
     604:	10b62804 	addi	r2,r2,-10080
     608:	10000005 	stb	zero,0(r2)
     60c:	00800074 	movhi	r2,1
     610:	10b62844 	addi	r2,r2,-10079
     614:	10000005 	stb	zero,0(r2)
	timeout = 0;										// synchronize with the timer
     618:	00800074 	movhi	r2,1
     61c:	10b62904 	addi	r2,r2,-10076
     620:	10000015 	stw	zero,0(r2)
	int ALT_x1; int ALT_x2; int ALT_y; 
	int ALT_inc_x; int ALT_inc_y;
	int blue_x1; int blue_y1; int blue_x2; int blue_y2; 
	int screen_x; int screen_y; int char_buffer_x; int char_buffer_y;
	short color;
	flag1=0;
     624:	d0278e15 	stw	zero,-25032(gp)
	/* set the interval timer period for scrolling the HEX displays */
	int counter = 0x960000;				// 1/(50 MHz) x (0x960000) ~= 200 msec
     628:	008025b4 	movhi	r2,150
     62c:	e0bfbe15 	stw	r2,-264(fp)
	*(interval_timer_ptr + 0x2) = (counter & 0xFFFF);
     630:	e0bfd017 	ldw	r2,-192(fp)
     634:	10c00204 	addi	r3,r2,8
     638:	e0bfbe17 	ldw	r2,-264(fp)
     63c:	10bfffcc 	andi	r2,r2,65535
     640:	18800015 	stw	r2,0(r3)
	*(interval_timer_ptr + 0x3) = (counter >> 16) & 0xFFFF;
     644:	e0bfd017 	ldw	r2,-192(fp)
     648:	10c00304 	addi	r3,r2,12
     64c:	e0bfbe17 	ldw	r2,-264(fp)
     650:	1005d43a 	srai	r2,r2,16
     654:	10bfffcc 	andi	r2,r2,65535
     658:	18800015 	stw	r2,0(r3)

	/* start interval timer, enable its interrupts */
	*(interval_timer_ptr + 1) = 0x7;	// STOP = 0, START = 1, CONT = 1, ITO = 1 
     65c:	e0bfd017 	ldw	r2,-192(fp)
     660:	10c00104 	addi	r3,r2,4
     664:	008001c4 	movi	r2,7
     668:	18800015 	stw	r2,0(r3)
	flag=0;
     66c:	d0278d15 	stw	zero,-25036(gp)
	// open the pushbuttom KEY parallel port
	KEY_dev = alt_up_parallel_port_open_dev ("/dev/Pushbuttons");
     670:	01000074 	movhi	r4,1
     674:	2125f504 	addi	r4,r4,-26668
     678:	0003a9c0 	call	3a9c <alt_up_parallel_port_open_dev>
     67c:	e0bfd715 	stw	r2,-164(fp)
	if ( KEY_dev == NULL)
     680:	e0bfd717 	ldw	r2,-164(fp)
     684:	1004c03a 	cmpne	r2,r2,zero
     688:	1000061e 	bne	r2,zero,6a4 <main+0xd4>
	{
		alt_printf ("Error: could not open pushbutton KEY device\n");
     68c:	01000074 	movhi	r4,1
     690:	2125fa04 	addi	r4,r4,-26648
     694:	000139c0 	call	139c <alt_printf>
		return -1;
     698:	00bfffc4 	movi	r2,-1
     69c:	e0bfff15 	stw	r2,-4(fp)
     6a0:	0001ad06 	br	d58 <main+0x788>
	}
	else
	{
		alt_printf ("Opened pushbutton KEY device\n");
     6a4:	01000074 	movhi	r4,1
     6a8:	21260604 	addi	r4,r4,-26600
     6ac:	000139c0 	call	139c <alt_printf>
		up_dev.KEY_dev = KEY_dev;	// store for use by ISRs
     6b0:	00c00fb4 	movhi	r3,62
     6b4:	18f8a804 	addi	r3,r3,-7520
     6b8:	e0bfd717 	ldw	r2,-164(fp)
     6bc:	18800015 	stw	r2,0(r3)
	}
	/* write to the pushbutton interrupt mask register, and set 3 mask bits to 1 
	 * (bit 0 is Nios II reset) */
	alt_up_parallel_port_set_interrupt_mask (KEY_dev, 0xE);
     6c0:	e0bfd717 	ldw	r2,-164(fp)
     6c4:	10800a17 	ldw	r2,40(r2)
     6c8:	10800204 	addi	r2,r2,8
     6cc:	1007883a 	mov	r3,r2
     6d0:	00800384 	movi	r2,14
     6d4:	18800035 	stwio	r2,0(r3)

	// open the green LEDs parallel port
	green_LEDs_dev = alt_up_parallel_port_open_dev ("/dev/Green_LEDs");
     6d8:	01000074 	movhi	r4,1
     6dc:	21260e04 	addi	r4,r4,-26568
     6e0:	0003a9c0 	call	3a9c <alt_up_parallel_port_open_dev>
     6e4:	e0bfd615 	stw	r2,-168(fp)
	if ( green_LEDs_dev == NULL)
     6e8:	e0bfd617 	ldw	r2,-168(fp)
     6ec:	1004c03a 	cmpne	r2,r2,zero
     6f0:	1000061e 	bne	r2,zero,70c <main+0x13c>
	{
		alt_printf ("Error: could not open green LEDs device\n");
     6f4:	01000074 	movhi	r4,1
     6f8:	21261204 	addi	r4,r4,-26552
     6fc:	000139c0 	call	139c <alt_printf>
		return -1;
     700:	00ffffc4 	movi	r3,-1
     704:	e0ffff15 	stw	r3,-4(fp)
     708:	00019306 	br	d58 <main+0x788>
	}
	else
	{
		alt_printf ("Opened green LEDs device\n");
     70c:	01000074 	movhi	r4,1
     710:	21261d04 	addi	r4,r4,-26508
     714:	000139c0 	call	139c <alt_printf>
		up_dev.green_LEDs_dev = green_LEDs_dev;	// store for use by ISRs
     718:	00c00fb4 	movhi	r3,62
     71c:	18f8a804 	addi	r3,r3,-7520
     720:	e0bfd617 	ldw	r2,-168(fp)
     724:	18800115 	stw	r2,4(r3)
	}

	// open the PS2 port
	PS2_dev = alt_up_ps2_open_dev ("/dev/PS2_Port");
     728:	01000074 	movhi	r4,1
     72c:	21262404 	addi	r4,r4,-26480
     730:	000419c0 	call	419c <alt_up_ps2_open_dev>
     734:	e0bfd515 	stw	r2,-172(fp)
	if ( PS2_dev == NULL)
     738:	e0bfd517 	ldw	r2,-172(fp)
     73c:	1004c03a 	cmpne	r2,r2,zero
     740:	1000061e 	bne	r2,zero,75c <main+0x18c>
	{
		alt_printf ("Error: could not open PS2 device\n");
     744:	01000074 	movhi	r4,1
     748:	21262804 	addi	r4,r4,-26464
     74c:	000139c0 	call	139c <alt_printf>
		return -1;
     750:	01bfffc4 	movi	r6,-1
     754:	e1bfff15 	stw	r6,-4(fp)
     758:	00017f06 	br	d58 <main+0x788>
	}
	else
	{
		alt_printf ("Opened PS2 device\n");
     75c:	01000074 	movhi	r4,1
     760:	21263104 	addi	r4,r4,-26428
     764:	000139c0 	call	139c <alt_printf>
		up_dev.PS2_dev = PS2_dev;	// store for use by ISRs
     768:	00c00fb4 	movhi	r3,62
     76c:	18f8a804 	addi	r3,r3,-7520
     770:	e0bfd517 	ldw	r2,-172(fp)
     774:	18800215 	stw	r2,8(r3)
	}
	(void) alt_up_ps2_write_data_byte (PS2_dev, 0xFF);		// reset
     778:	e13fd517 	ldw	r4,-172(fp)
     77c:	01403fc4 	movi	r5,255
     780:	0003d800 	call	3d80 <alt_up_ps2_write_data_byte>
	alt_up_ps2_enable_read_interrupt (PS2_dev); // enable interrupts from PS/2 port
     784:	e13fd517 	ldw	r4,-172(fp)
     788:	0003cd40 	call	3cd4 <alt_up_ps2_enable_read_interrupt>

	// open the audio port
	audio_dev = alt_up_audio_open_dev ("/dev/Audio");
     78c:	01000074 	movhi	r4,1
     790:	21263604 	addi	r4,r4,-26408
     794:	00026440 	call	2644 <alt_up_audio_open_dev>
     798:	e0bfd315 	stw	r2,-180(fp)
	if ( audio_dev == NULL)
     79c:	e0bfd317 	ldw	r2,-180(fp)
     7a0:	1004c03a 	cmpne	r2,r2,zero
     7a4:	1000061e 	bne	r2,zero,7c0 <main+0x1f0>
	{
		alt_printf ("Error: could not open audio device\n");
     7a8:	01000074 	movhi	r4,1
     7ac:	21263904 	addi	r4,r4,-26396
     7b0:	000139c0 	call	139c <alt_printf>
		return -1;
     7b4:	01ffffc4 	movi	r7,-1
     7b8:	e1ffff15 	stw	r7,-4(fp)
     7bc:	00016606 	br	d58 <main+0x788>
	}
	else
	{
		alt_printf ("Opened audio device\n");
     7c0:	01000074 	movhi	r4,1
     7c4:	21264204 	addi	r4,r4,-26360
     7c8:	000139c0 	call	139c <alt_printf>
		up_dev.audio_dev = audio_dev;	// store for use by ISRs
     7cc:	00c00fb4 	movhi	r3,62
     7d0:	18f8a804 	addi	r3,r3,-7520
     7d4:	e0bfd317 	ldw	r2,-180(fp)
     7d8:	18800415 	stw	r2,16(r3)
	}

	// open the 16x2 character display port
	lcd_dev = alt_up_character_lcd_open_dev ("/dev/Char_LCD_16x2");
     7dc:	01000074 	movhi	r4,1
     7e0:	21264804 	addi	r4,r4,-26336
     7e4:	0002f340 	call	2f34 <alt_up_character_lcd_open_dev>
     7e8:	e0bfd415 	stw	r2,-176(fp)
	if ( lcd_dev == NULL)
     7ec:	e0bfd417 	ldw	r2,-176(fp)
     7f0:	1004c03a 	cmpne	r2,r2,zero
     7f4:	1000061e 	bne	r2,zero,810 <main+0x240>
	{
		alt_printf ("Error: could not open character LCD device\n");
     7f8:	01000074 	movhi	r4,1
     7fc:	21264d04 	addi	r4,r4,-26316
     800:	000139c0 	call	139c <alt_printf>
		return -1;
     804:	00bfffc4 	movi	r2,-1
     808:	e0bfff15 	stw	r2,-4(fp)
     80c:	00015206 	br	d58 <main+0x788>
	}
	else
	{
		alt_printf ("Opened character LCD device\n");
     810:	01000074 	movhi	r4,1
     814:	21265804 	addi	r4,r4,-26272
     818:	000139c0 	call	139c <alt_printf>
		up_dev.lcd_dev = lcd_dev;	// store for use by ISRs
     81c:	00c00fb4 	movhi	r3,62
     820:	18f8a804 	addi	r3,r3,-7520
     824:	e0bfd417 	ldw	r2,-176(fp)
     828:	18800315 	stw	r2,12(r3)
	/* use the HAL facility for registering interrupt service routines. */
	/* Note: we are passsing a pointer to up_dev to each ISR (using the context argument) as 
	 * a way of giving the ISR a pointer to every open device. This is useful because some of the
	 * ISRs need to access more than just one device (e.g. the pushbutton ISR accesses both
	 * the pushbutton device and the audio device) */
	alt_irq_register (0, (void *) &up_dev, (void *) interval_timer_ISR);
     82c:	01800034 	movhi	r6,0
     830:	31815c04 	addi	r6,r6,1392
     834:	0009883a 	mov	r4,zero
     838:	01400fb4 	movhi	r5,62
     83c:	2978a804 	addi	r5,r5,-7520
     840:	00010840 	call	1084 <alt_irq_register>
	alt_irq_register (1, (void *) &up_dev, (void *) pushbutton_ISR);
     844:	01800034 	movhi	r6,0
     848:	3183a504 	addi	r6,r6,3732
     84c:	01000044 	movi	r4,1
     850:	01400fb4 	movhi	r5,62
     854:	2978a804 	addi	r5,r5,-7520
     858:	00010840 	call	1084 <alt_irq_register>
	alt_irq_register (6, (void *) &up_dev, (void *) audio_ISR);
     85c:	01800034 	movhi	r6,0
     860:	3180ae04 	addi	r6,r6,696
     864:	01000184 	movi	r4,6
     868:	01400fb4 	movhi	r5,62
     86c:	2978a804 	addi	r5,r5,-7520
     870:	00010840 	call	1084 <alt_irq_register>
	alt_irq_register (7, (void *) &up_dev, (void *) PS2_ISR);
     874:	01800034 	movhi	r6,0
     878:	31807d04 	addi	r6,r6,500
     87c:	010001c4 	movi	r4,7
     880:	01400fb4 	movhi	r5,62
     884:	2978a804 	addi	r5,r5,-7520
     888:	00010840 	call	1084 <alt_irq_register>

	/* create a messages to be displayed on the VGA and LCD displays */
	char text_top_LCD[80] = "Welcome to the DE2 Media Computer...\0";
     88c:	00c00074 	movhi	r3,1
     890:	18e69204 	addi	r3,r3,-26040
     894:	18800017 	ldw	r2,0(r3)
     898:	e0bfd815 	stw	r2,-160(fp)
     89c:	18800117 	ldw	r2,4(r3)
     8a0:	e0bfd915 	stw	r2,-156(fp)
     8a4:	18800217 	ldw	r2,8(r3)
     8a8:	e0bfda15 	stw	r2,-152(fp)
     8ac:	18800317 	ldw	r2,12(r3)
     8b0:	e0bfdb15 	stw	r2,-148(fp)
     8b4:	18800417 	ldw	r2,16(r3)
     8b8:	e0bfdc15 	stw	r2,-144(fp)
     8bc:	18800517 	ldw	r2,20(r3)
     8c0:	e0bfdd15 	stw	r2,-140(fp)
     8c4:	18800617 	ldw	r2,24(r3)
     8c8:	e0bfde15 	stw	r2,-136(fp)
     8cc:	18800717 	ldw	r2,28(r3)
     8d0:	e0bfdf15 	stw	r2,-132(fp)
     8d4:	18800817 	ldw	r2,32(r3)
     8d8:	e0bfe015 	stw	r2,-128(fp)
     8dc:	1880090b 	ldhu	r2,36(r3)
     8e0:	e0bfe10d 	sth	r2,-124(fp)
     8e4:	e13fe184 	addi	r4,fp,-122
     8e8:	01800a84 	movi	r6,42
     8ec:	000b883a 	mov	r5,zero
     8f0:	0000fec0 	call	fec <memset>
	char text_top_VGA[20] = "Altera DE2\0";
     8f4:	00c00074 	movhi	r3,1
     8f8:	18e6a604 	addi	r3,r3,-25960
     8fc:	18800017 	ldw	r2,0(r3)
     900:	e0bfec15 	stw	r2,-80(fp)
     904:	18800117 	ldw	r2,4(r3)
     908:	e0bfed15 	stw	r2,-76(fp)
     90c:	18800217 	ldw	r2,8(r3)
     910:	e0bfee15 	stw	r2,-72(fp)
     914:	e03fef15 	stw	zero,-68(fp)
     918:	e03ff015 	stw	zero,-64(fp)
	char text_bottom_VGA[20] = "Media Computer\0";
     91c:	00c00074 	movhi	r3,1
     920:	18e6ab04 	addi	r3,r3,-25940
     924:	18800017 	ldw	r2,0(r3)
     928:	e0bff115 	stw	r2,-60(fp)
     92c:	18800117 	ldw	r2,4(r3)
     930:	e0bff215 	stw	r2,-56(fp)
     934:	18800217 	ldw	r2,8(r3)
     938:	e0bff315 	stw	r2,-52(fp)
     93c:	18800317 	ldw	r2,12(r3)
     940:	e0bff415 	stw	r2,-48(fp)
     944:	e03ff515 	stw	zero,-44(fp)
	char text_ALTERA[10] = "ALTERA\0";
     948:	00c00074 	movhi	r3,1
     94c:	18e6b004 	addi	r3,r3,-25920
     950:	18800017 	ldw	r2,0(r3)
     954:	e0bff615 	stw	r2,-40(fp)
     958:	18800117 	ldw	r2,4(r3)
     95c:	e0bff715 	stw	r2,-36(fp)
     960:	e03ff80d 	sth	zero,-32(fp)
	char text_erase[10] = "      \0";
     964:	00c00074 	movhi	r3,1
     968:	18e6b304 	addi	r3,r3,-25908
     96c:	1880000b 	ldhu	r2,0(r3)
     970:	e0bff88d 	sth	r2,-30(fp)
     974:	1880008b 	ldhu	r2,2(r3)
     978:	e0bff90d 	sth	r2,-28(fp)
     97c:	1880010b 	ldhu	r2,4(r3)
     980:	e0bff98d 	sth	r2,-26(fp)
     984:	1880018b 	ldhu	r2,6(r3)
     988:	e0bffa0d 	sth	r2,-24(fp)
     98c:	e03ffa8d 	sth	zero,-22(fp)

	/* output text message to the LCD */
	alt_up_character_lcd_set_cursor_pos (lcd_dev, 0, 0);	// set LCD cursor location to top row
     990:	e13fd417 	ldw	r4,-176(fp)
     994:	000b883a 	mov	r5,zero
     998:	000d883a 	mov	r6,zero
     99c:	00030b00 	call	30b0 <alt_up_character_lcd_set_cursor_pos>
	alt_up_character_lcd_string (lcd_dev, text_top_LCD);
     9a0:	e17fd804 	addi	r5,fp,-160
     9a4:	e13fd417 	ldw	r4,-176(fp)
     9a8:	0002fec0 	call	2fec <alt_up_character_lcd_string>
	alt_up_character_lcd_cursor_off (lcd_dev);				// turn off the LCD cursor 
     9ac:	e13fd417 	ldw	r4,-176(fp)
     9b0:	00033180 	call	3318 <alt_up_character_lcd_cursor_off>

	/* open the pixel buffer */
	pixel_buffer_dev = alt_up_pixel_buffer_dma_open_dev ("/dev/VGA_Pixel_Buffer");
     9b4:	01000074 	movhi	r4,1
     9b8:	21266004 	addi	r4,r4,-26240
     9bc:	00048780 	call	4878 <alt_up_pixel_buffer_dma_open_dev>
     9c0:	e0bfd115 	stw	r2,-188(fp)
	if ( pixel_buffer_dev == NULL)
     9c4:	e0bfd117 	ldw	r2,-188(fp)
     9c8:	1004c03a 	cmpne	r2,r2,zero
     9cc:	1000041e 	bne	r2,zero,9e0 <main+0x410>
		alt_printf ("Error: could not open pixel buffer device\n");
     9d0:	01000074 	movhi	r4,1
     9d4:	21266604 	addi	r4,r4,-26216
     9d8:	000139c0 	call	139c <alt_printf>
     9dc:	00000306 	br	9ec <main+0x41c>
	else
		alt_printf ("Opened pixel buffer device\n");
     9e0:	01000074 	movhi	r4,1
     9e4:	21267104 	addi	r4,r4,-26172
     9e8:	000139c0 	call	139c <alt_printf>

	/* the following variables give the size of the pixel buffer */
	screen_x = 319; screen_y = 239;
     9ec:	00804fc4 	movi	r2,319
     9f0:	e0bfc315 	stw	r2,-244(fp)
     9f4:	00803bc4 	movi	r2,239
     9f8:	e0bfc215 	stw	r2,-248(fp)
	color = 0x1863;		// a dark grey color
     9fc:	008618c4 	movi	r2,6243
     a00:	e0bfbf0d 	sth	r2,-260(fp)
	alt_up_pixel_buffer_dma_draw_box (pixel_buffer_dev, 0, 0, screen_x, 
     a04:	e0ffbf0f 	ldh	r3,-260(fp)
     a08:	e0bfc217 	ldw	r2,-248(fp)
     a0c:	d8800015 	stw	r2,0(sp)
     a10:	d8c00115 	stw	r3,4(sp)
     a14:	d8000215 	stw	zero,8(sp)
     a18:	e13fd117 	ldw	r4,-188(fp)
     a1c:	000b883a 	mov	r5,zero
     a20:	000d883a 	mov	r6,zero
     a24:	e1ffc317 	ldw	r7,-244(fp)
     a28:	0004ca00 	call	4ca0 <alt_up_pixel_buffer_dma_draw_box>
		screen_y, color, 0); // fill the screen
	
	// draw a medium-blue box in the middle of the screen, using character buffer coordinates
	blue_x1 = 28; blue_x2 = 52; blue_y1 = 26; blue_y2 = 34;
     a2c:	00800704 	movi	r2,28
     a30:	e0bfc715 	stw	r2,-228(fp)
     a34:	00800d04 	movi	r2,52
     a38:	e0bfc515 	stw	r2,-236(fp)
     a3c:	00800684 	movi	r2,26
     a40:	e0bfc615 	stw	r2,-232(fp)
     a44:	00800884 	movi	r2,34
     a48:	e0bfc415 	stw	r2,-240(fp)
	// character coords * 4 since characters are 4 x 4 pixel buffer coords (8 x 8 VGA coords)
	color = 0x187F;		// a medium blue color
     a4c:	00861fc4 	movi	r2,6271
     a50:	e0bfbf0d 	sth	r2,-260(fp)
//alt_up_pixel_buffer_dma_draw_box (pixel_buffer_dev, blue_x1 * 4, blue_y1 * 4, blue_x2 * 4,
	//blue_y2 * 4, color, 0);

	/* output text message in the middle of the VGA monitor */
	char_buffer_dev = alt_up_char_buffer_open_dev ("/dev/VGA_Char_Buffer");
     a54:	01000074 	movhi	r4,1
     a58:	21267804 	addi	r4,r4,-26144
     a5c:	00045f80 	call	45f8 <alt_up_char_buffer_open_dev>
     a60:	e0bfd215 	stw	r2,-184(fp)
	if ( char_buffer_dev == NULL)
     a64:	e0bfd217 	ldw	r2,-184(fp)
     a68:	1004c03a 	cmpne	r2,r2,zero
     a6c:	1000041e 	bne	r2,zero,a80 <main+0x4b0>
		alt_printf ("Error: could not open character buffer device\n");
     a70:	01000074 	movhi	r4,1
     a74:	21267e04 	addi	r4,r4,-26120
     a78:	000139c0 	call	139c <alt_printf>
     a7c:	00000406 	br	a90 <main+0x4c0>
	else
		alt_printf ("Opened character buffer device\n");
     a80:	01000074 	movhi	r4,1
     a84:	21268a04 	addi	r4,r4,-26072
     a88:	000139c0 	call	139c <alt_printf>
     a8c:	00000006 	br	a90 <main+0x4c0>
	//alt_up_char_buffer_string (char_buffer_dev, text_ALTERA, ALT_x1, ALT_y);

	/* this loops "bounces" the word ALTERA around on the VGA screen */
	while (1)
	{
		while (!timeout)
     a90:	00800074 	movhi	r2,1
     a94:	10b62904 	addi	r2,r2,-10076
     a98:	10800017 	ldw	r2,0(r2)
     a9c:	1005003a 	cmpeq	r2,r2,zero
     aa0:	103ffb1e 	bne	r2,zero,a90 <main+0x4c0>
			;	// wait to synchronize with timeout, which is set by the interval timer ISR 
		if (flag==1){
     aa4:	d0a78d17 	ldw	r2,-25036(gp)
     aa8:	10800058 	cmpnei	r2,r2,1
     aac:	1000821e 	bne	r2,zero,cb8 <main+0x6e8>
			for(i=0;i<N;i++){
     ab0:	e03fcf15 	stw	zero,-196(fp)
     ab4:	00004806 	br	bd8 <main+0x608>
				for(j=0;j<(BUF_SIZE/N);j++){
     ab8:	e03fce15 	stw	zero,-200(fp)
     abc:	00003606 	br	b98 <main+0x5c8>
					average[i]=average[i]+abs(r_buf[i*(BUF_SIZE/N)+j]/(BUF_SIZE/N));
     ac0:	e0ffcf17 	ldw	r3,-196(fp)
     ac4:	e0fffe15 	stw	r3,-8(fp)
     ac8:	e0bfcf17 	ldw	r2,-196(fp)
     acc:	00c00074 	movhi	r3,1
     ad0:	18f64004 	addi	r3,r3,-9984
     ad4:	100490fa 	slli	r2,r2,3
     ad8:	10c5883a 	add	r2,r2,r3
     adc:	11800017 	ldw	r6,0(r2)
     ae0:	e1bffc15 	stw	r6,-16(fp)
     ae4:	10800117 	ldw	r2,4(r2)
     ae8:	e0bffd15 	stw	r2,-12(fp)
     aec:	e0bfcf17 	ldw	r2,-196(fp)
     af0:	10d86a24 	muli	r3,r2,25000
     af4:	e0bfce17 	ldw	r2,-200(fp)
     af8:	1885883a 	add	r2,r3,r2
     afc:	00c00074 	movhi	r3,1
     b00:	18f66804 	addi	r3,r3,-9824
     b04:	1085883a 	add	r2,r2,r2
     b08:	1085883a 	add	r2,r2,r2
     b0c:	10c5883a 	add	r2,r2,r3
     b10:	10c00017 	ldw	r3,0(r2)
     b14:	00986a04 	movi	r2,25000
     b18:	1885283a 	div	r2,r3,r2
     b1c:	e0bffb15 	stw	r2,-20(fp)
     b20:	e1fffb17 	ldw	r7,-20(fp)
     b24:	3804403a 	cmpge	r2,r7,zero
     b28:	1000031e 	bne	r2,zero,b38 <main+0x568>
     b2c:	e0bffb17 	ldw	r2,-20(fp)
     b30:	0085c83a 	sub	r2,zero,r2
     b34:	e0bffb15 	stw	r2,-20(fp)
     b38:	e0fffb17 	ldw	r3,-20(fp)
     b3c:	1805d7fa 	srai	r2,r3,31
     b40:	e13ffb17 	ldw	r4,-20(fp)
     b44:	100b883a 	mov	r5,r2
     b48:	e1bffc17 	ldw	r6,-16(fp)
     b4c:	3105883a 	add	r2,r6,r4
     b50:	e1fffc17 	ldw	r7,-16(fp)
     b54:	11cd803a 	cmpltu	r6,r2,r7
     b58:	e1fffd17 	ldw	r7,-12(fp)
     b5c:	3947883a 	add	r3,r7,r5
     b60:	30c9883a 	add	r4,r6,r3
     b64:	2007883a 	mov	r3,r4
     b68:	1009883a 	mov	r4,r2
     b6c:	180b883a 	mov	r5,r3
     b70:	00c00074 	movhi	r3,1
     b74:	18f64004 	addi	r3,r3,-9984
     b78:	e1bffe17 	ldw	r6,-8(fp)
     b7c:	300490fa 	slli	r2,r6,3
     b80:	10c5883a 	add	r2,r2,r3
     b84:	11000015 	stw	r4,0(r2)
     b88:	11400115 	stw	r5,4(r2)
	{
		while (!timeout)
			;	// wait to synchronize with timeout, which is set by the interval timer ISR 
		if (flag==1){
			for(i=0;i<N;i++){
				for(j=0;j<(BUF_SIZE/N);j++){
     b8c:	e0bfce17 	ldw	r2,-200(fp)
     b90:	10800044 	addi	r2,r2,1
     b94:	e0bfce15 	stw	r2,-200(fp)
     b98:	e0bfce17 	ldw	r2,-200(fp)
     b9c:	10986a10 	cmplti	r2,r2,25000
     ba0:	103fc71e 	bne	r2,zero,ac0 <main+0x4f0>
					average[i]=average[i]+abs(r_buf[i*(BUF_SIZE/N)+j]/(BUF_SIZE/N));

				}
				alt_up_pixel_buffer_dma_draw_box (pixel_buffer_dev, 0, 0, screen_x,
     ba4:	e0bfc217 	ldw	r2,-248(fp)
     ba8:	d8800015 	stw	r2,0(sp)
     bac:	008618c4 	movi	r2,6243
     bb0:	d8800115 	stw	r2,4(sp)
     bb4:	d8000215 	stw	zero,8(sp)
     bb8:	e13fd117 	ldw	r4,-188(fp)
     bbc:	000b883a 	mov	r5,zero
     bc0:	000d883a 	mov	r6,zero
     bc4:	e1ffc317 	ldw	r7,-244(fp)
     bc8:	0004ca00 	call	4ca0 <alt_up_pixel_buffer_dma_draw_box>
	while (1)
	{
		while (!timeout)
			;	// wait to synchronize with timeout, which is set by the interval timer ISR 
		if (flag==1){
			for(i=0;i<N;i++){
     bcc:	e0bfcf17 	ldw	r2,-196(fp)
     bd0:	10800044 	addi	r2,r2,1
     bd4:	e0bfcf15 	stw	r2,-196(fp)
     bd8:	e0bfcf17 	ldw	r2,-196(fp)
     bdc:	10800510 	cmplti	r2,r2,20
     be0:	103fb51e 	bne	r2,zero,ab8 <main+0x4e8>
				alt_up_pixel_buffer_dma_draw_box (pixel_buffer_dev, 0, 0, screen_x,
						screen_y,  0x1863, 0); // fill the screen


			}
			for (j=0;j<N;j++){
     be4:	e03fce15 	stw	zero,-200(fp)
     be8:	00002f06 	br	ca8 <main+0x6d8>
				average[j]=(average[j])>>25;
     bec:	e1ffce17 	ldw	r7,-200(fp)
     bf0:	e0bfce17 	ldw	r2,-200(fp)
     bf4:	00c00074 	movhi	r3,1
     bf8:	18f64004 	addi	r3,r3,-9984
     bfc:	100490fa 	slli	r2,r2,3
     c00:	10c5883a 	add	r2,r2,r3
     c04:	11000017 	ldw	r4,0(r2)
     c08:	11400117 	ldw	r5,4(r2)
     c0c:	280c91fa 	slli	r6,r5,7
     c10:	2004d67a 	srli	r2,r4,25
     c14:	1184b03a 	or	r2,r2,r6
     c18:	2807d67a 	srai	r3,r5,25
     c1c:	01400074 	movhi	r5,1
     c20:	29764004 	addi	r5,r5,-9984
     c24:	380890fa 	slli	r4,r7,3
     c28:	2149883a 	add	r4,r4,r5
     c2c:	20800015 	stw	r2,0(r4)
     c30:	20c00115 	stw	r3,4(r4)
				alt_up_pixel_buffer_dma_draw_box (pixel_buffer_dev, 5+j*k+2, 220, 5+(j+1)*k,
     c34:	e0ffce17 	ldw	r3,-200(fp)
     c38:	e0bfcd17 	ldw	r2,-204(fp)
     c3c:	1885383a 	mul	r2,r3,r2
     c40:	114001c4 	addi	r5,r2,7
     c44:	e0bfce17 	ldw	r2,-200(fp)
     c48:	10c00044 	addi	r3,r2,1
     c4c:	e0bfcd17 	ldw	r2,-204(fp)
     c50:	1885383a 	mul	r2,r3,r2
     c54:	11c00144 	addi	r7,r2,5
     c58:	e0bfce17 	ldw	r2,-200(fp)
     c5c:	00c00074 	movhi	r3,1
     c60:	18f64004 	addi	r3,r3,-9984
     c64:	100490fa 	slli	r2,r2,3
     c68:	10c9883a 	add	r4,r2,r3
     c6c:	20800017 	ldw	r2,0(r4)
     c70:	20c00117 	ldw	r3,4(r4)
     c74:	1007883a 	mov	r3,r2
     c78:	00803704 	movi	r2,220
     c7c:	10c5c83a 	sub	r2,r2,r3
     c80:	e0ffbf0f 	ldh	r3,-260(fp)
     c84:	d8800015 	stw	r2,0(sp)
     c88:	d8c00115 	stw	r3,4(sp)
     c8c:	d8000215 	stw	zero,8(sp)
     c90:	e13fd117 	ldw	r4,-188(fp)
     c94:	01803704 	movi	r6,220
     c98:	0004ca00 	call	4ca0 <alt_up_pixel_buffer_dma_draw_box>
				alt_up_pixel_buffer_dma_draw_box (pixel_buffer_dev, 0, 0, screen_x,
						screen_y,  0x1863, 0); // fill the screen


			}
			for (j=0;j<N;j++){
     c9c:	e0bfce17 	ldw	r2,-200(fp)
     ca0:	10800044 	addi	r2,r2,1
     ca4:	e0bfce15 	stw	r2,-200(fp)
     ca8:	e0bfce17 	ldw	r2,-200(fp)
     cac:	10800510 	cmplti	r2,r2,20
     cb0:	103fce1e 	bne	r2,zero,bec <main+0x61c>
				alt_up_pixel_buffer_dma_draw_box (pixel_buffer_dev, 5+j*k+2, 220, 5+(j+1)*k,
					220-average[j], color, 0);

			}

			flag=0;
     cb4:	d0278d15 	stw	zero,-25036(gp)
		}
		if(flag1==1){
     cb8:	d0a78e17 	ldw	r2,-25032(gp)
     cbc:	10800058 	cmpnei	r2,r2,1
     cc0:	1000211e 	bne	r2,zero,d48 <main+0x778>
			for(j=1;j<N+1;j++){
     cc4:	00800044 	movi	r2,1
     cc8:	e0bfce15 	stw	r2,-200(fp)
     ccc:	00001a06 	br	d38 <main+0x768>
				while(buf_index_play<(j*(BUF_SIZE/N)));
     cd0:	e0bfce17 	ldw	r2,-200(fp)
     cd4:	10d86a24 	muli	r3,r2,25000
     cd8:	00800074 	movhi	r2,1
     cdc:	10b62a04 	addi	r2,r2,-10072
     ce0:	10800017 	ldw	r2,0(r2)
     ce4:	10fffa16 	blt	r2,r3,cd0 <main+0x700>
				alt_up_pixel_buffer_dma_draw_box (pixel_buffer_dev, 5+(j-1)*k+2, 230, 5+j*k,
     ce8:	e0bfce17 	ldw	r2,-200(fp)
     cec:	10ffffc4 	addi	r3,r2,-1
     cf0:	e0bfcd17 	ldw	r2,-204(fp)
     cf4:	1885383a 	mul	r2,r3,r2
     cf8:	114001c4 	addi	r5,r2,7
     cfc:	e0ffce17 	ldw	r3,-200(fp)
     d00:	e0bfcd17 	ldw	r2,-204(fp)
     d04:	1885383a 	mul	r2,r3,r2
     d08:	11c00144 	addi	r7,r2,5
     d0c:	e0ffbf0f 	ldh	r3,-260(fp)
     d10:	00803ac4 	movi	r2,235
     d14:	d8800015 	stw	r2,0(sp)
     d18:	d8c00115 	stw	r3,4(sp)
     d1c:	d8000215 	stw	zero,8(sp)
     d20:	e13fd117 	ldw	r4,-188(fp)
     d24:	01803984 	movi	r6,230
     d28:	0004ca00 	call	4ca0 <alt_up_pixel_buffer_dma_draw_box>
			}

			flag=0;
		}
		if(flag1==1){
			for(j=1;j<N+1;j++){
     d2c:	e0bfce17 	ldw	r2,-200(fp)
     d30:	10800044 	addi	r2,r2,1
     d34:	e0bfce15 	stw	r2,-200(fp)
     d38:	e0bfce17 	ldw	r2,-200(fp)
     d3c:	10800550 	cmplti	r2,r2,21
     d40:	103fe31e 	bne	r2,zero,cd0 <main+0x700>
				alt_up_pixel_buffer_dma_draw_box (pixel_buffer_dev, 5+(j-1)*k+2, 230, 5+j*k,
									235, color, 0);


			}
			flag1=0;
     d44:	d0278e15 	stw	zero,-25032(gp)
		}
		/* move the ALTERA text around on the VGA screen */

		timeout = 0;
     d48:	00800074 	movhi	r2,1
     d4c:	10b62904 	addi	r2,r2,-10076
     d50:	10000015 	stw	zero,0(r2)
	}
     d54:	003f4e06 	br	a90 <main+0x4c0>
     d58:	e0bfff17 	ldw	r2,-4(fp)
}
     d5c:	e037883a 	mov	sp,fp
     d60:	dfc00117 	ldw	ra,4(sp)
     d64:	df000017 	ldw	fp,0(sp)
     d68:	dec00204 	addi	sp,sp,8
     d6c:	f800283a 	ret

00000d70 <HEX_PS2>:
 * Subroutine to show a string of HEX data on the HEX displays
 * Note that we are using pointer accesses for the HEX displays parallel port. We could
 * also use the HAL functions for these ports instead
****************************************************************************************/
void HEX_PS2(unsigned char b1, unsigned char b2, unsigned char b3)
{
     d70:	deffef04 	addi	sp,sp,-68
     d74:	dfc01015 	stw	ra,64(sp)
     d78:	df000f15 	stw	fp,60(sp)
     d7c:	df000f04 	addi	fp,sp,60
     d80:	e13ffd05 	stb	r4,-12(fp)
     d84:	e17ffe05 	stb	r5,-8(fp)
     d88:	e1bfff05 	stb	r6,-4(fp)
	volatile int *HEX3_HEX0_ptr = (int *) 0x10000020;
     d8c:	00840034 	movhi	r2,4096
     d90:	10800804 	addi	r2,r2,32
     d94:	e0bff615 	stw	r2,-40(fp)
	volatile int *HEX7_HEX4_ptr = (int *) 0x10000030;
     d98:	00840034 	movhi	r2,4096
     d9c:	10800c04 	addi	r2,r2,48
     da0:	e0bff515 	stw	r2,-44(fp)

	/* SEVEN_SEGMENT_DECODE_TABLE gives the on/off settings for all segments in 
	 * a single 7-seg display in the DE2 Media Computer, for the hex digits 0 - F */
	unsigned char	seven_seg_decode_table[] = {	0x3F, 0x06, 0x5B, 0x4F, 0x66, 0x6D, 0x7D, 0x07, 
		  										0x7F, 0x67, 0x77, 0x7C, 0x39, 0x5E, 0x79, 0x71 };
     da4:	00800074 	movhi	r2,1
     da8:	10a6b584 	addi	r2,r2,-25898
     dac:	e13ff704 	addi	r4,fp,-36
     db0:	100b883a 	mov	r5,r2
     db4:	01800404 	movi	r6,16
     db8:	0000f4c0 	call	f4c <memcpy>
	unsigned char	hex_segs[] = { 0, 0, 0, 0, 0, 0, 0, 0 };
     dbc:	e03ffb05 	stb	zero,-20(fp)
     dc0:	e03ffb45 	stb	zero,-19(fp)
     dc4:	e03ffb85 	stb	zero,-18(fp)
     dc8:	e03ffbc5 	stb	zero,-17(fp)
     dcc:	e03ffc05 	stb	zero,-16(fp)
     dd0:	e03ffc45 	stb	zero,-15(fp)
     dd4:	e03ffc85 	stb	zero,-14(fp)
     dd8:	e03ffcc5 	stb	zero,-13(fp)
	unsigned int shift_buffer, nibble;
	unsigned char code;
	int i;

	shift_buffer = (b1 << 16) | (b2 << 8) | b3;
     ddc:	e0bffd03 	ldbu	r2,-12(fp)
     de0:	1006943a 	slli	r3,r2,16
     de4:	e0bffe03 	ldbu	r2,-8(fp)
     de8:	1004923a 	slli	r2,r2,8
     dec:	1886b03a 	or	r3,r3,r2
     df0:	e0bfff03 	ldbu	r2,-4(fp)
     df4:	1884b03a 	or	r2,r3,r2
     df8:	e0bff415 	stw	r2,-48(fp)
	for ( i = 0; i < 6; ++i )
     dfc:	e03ff115 	stw	zero,-60(fp)
     e00:	00001306 	br	e50 <HEX_PS2+0xe0>
	{
		nibble = shift_buffer & 0x0000000F;		// character is in rightmost nibble
     e04:	e0bff417 	ldw	r2,-48(fp)
     e08:	108003cc 	andi	r2,r2,15
     e0c:	e0bff315 	stw	r2,-52(fp)
		code = seven_seg_decode_table[nibble];
     e10:	e0fff317 	ldw	r3,-52(fp)
     e14:	e0bff704 	addi	r2,fp,-36
     e18:	10c5883a 	add	r2,r2,r3
     e1c:	10800003 	ldbu	r2,0(r2)
     e20:	e0bff205 	stb	r2,-56(fp)
		hex_segs[i] = code;
     e24:	e0fff117 	ldw	r3,-60(fp)
     e28:	e0bffb04 	addi	r2,fp,-20
     e2c:	10c7883a 	add	r3,r2,r3
     e30:	e0bff203 	ldbu	r2,-56(fp)
     e34:	18800005 	stb	r2,0(r3)
		shift_buffer = shift_buffer >> 4;
     e38:	e0bff417 	ldw	r2,-48(fp)
     e3c:	1004d13a 	srli	r2,r2,4
     e40:	e0bff415 	stw	r2,-48(fp)
	unsigned int shift_buffer, nibble;
	unsigned char code;
	int i;

	shift_buffer = (b1 << 16) | (b2 << 8) | b3;
	for ( i = 0; i < 6; ++i )
     e44:	e0bff117 	ldw	r2,-60(fp)
     e48:	10800044 	addi	r2,r2,1
     e4c:	e0bff115 	stw	r2,-60(fp)
     e50:	e0bff117 	ldw	r2,-60(fp)
     e54:	10800190 	cmplti	r2,r2,6
     e58:	103fea1e 	bne	r2,zero,e04 <HEX_PS2+0x94>
		code = seven_seg_decode_table[nibble];
		hex_segs[i] = code;
		shift_buffer = shift_buffer >> 4;
	}
	/* drive the hex displays */
	*(HEX3_HEX0_ptr) = *(int *) (hex_segs);
     e5c:	e0bffb04 	addi	r2,fp,-20
     e60:	10c00017 	ldw	r3,0(r2)
     e64:	e0bff617 	ldw	r2,-40(fp)
     e68:	10c00015 	stw	r3,0(r2)
	*(HEX7_HEX4_ptr) = *(int *) (hex_segs+4);
     e6c:	e0bffb04 	addi	r2,fp,-20
     e70:	10800104 	addi	r2,r2,4
     e74:	10c00017 	ldw	r3,0(r2)
     e78:	e0bff517 	ldw	r2,-44(fp)
     e7c:	10c00015 	stw	r3,0(r2)
}
     e80:	e037883a 	mov	sp,fp
     e84:	dfc00117 	ldw	ra,4(sp)
     e88:	df000017 	ldw	fp,0(sp)
     e8c:	dec00204 	addi	sp,sp,8
     e90:	f800283a 	ret

00000e94 <pushbutton_ISR>:
 *                                                                          
 * This ISR checks which KEY has been pressed. If KEY1, then it enables audio-in
 * interrupts (recording). If KEY2, it enables audio-out interrupts (playback).
****************************************************************************************/
void pushbutton_ISR(struct alt_up_dev *up_dev, unsigned int id)
{
     e94:	defffa04 	addi	sp,sp,-24
     e98:	dfc00515 	stw	ra,20(sp)
     e9c:	df000415 	stw	fp,16(sp)
     ea0:	df000404 	addi	fp,sp,16
     ea4:	e13ffe15 	stw	r4,-8(fp)
     ea8:	e17fff15 	stw	r5,-4(fp)
	alt_up_audio_dev *audio_dev;

	audio_dev = up_dev->audio_dev;
     eac:	e0bffe17 	ldw	r2,-8(fp)
     eb0:	10800417 	ldw	r2,16(r2)
     eb4:	e0bffd15 	stw	r2,-12(fp)
	
	int KEY_value;

	/* read the pushbutton interrupt register */
	KEY_value = alt_up_parallel_port_read_edge_capture (up_dev->KEY_dev);
     eb8:	e0bffe17 	ldw	r2,-8(fp)
     ebc:	10800017 	ldw	r2,0(r2)
     ec0:	10800a17 	ldw	r2,40(r2)
     ec4:	10800304 	addi	r2,r2,12
     ec8:	10800037 	ldwio	r2,0(r2)
     ecc:	e0bffc15 	stw	r2,-16(fp)
	alt_up_parallel_port_clear_edge_capture (up_dev->KEY_dev);	// Clear the interrupt
     ed0:	e0bffe17 	ldw	r2,-8(fp)
     ed4:	10800017 	ldw	r2,0(r2)
     ed8:	10800a17 	ldw	r2,40(r2)
     edc:	10800304 	addi	r2,r2,12
     ee0:	10000035 	stwio	zero,0(r2)

	if (KEY_value == 0x2)										// check KEY1
     ee4:	e0bffc17 	ldw	r2,-16(fp)
     ee8:	10800098 	cmpnei	r2,r2,2
     eec:	1000081e 	bne	r2,zero,f10 <pushbutton_ISR+0x7c>
	{
		// reset the buffer index for recording
		buf_index_record = 0;
     ef0:	00800074 	movhi	r2,1
     ef4:	10b62b04 	addi	r2,r2,-10068
     ef8:	10000015 	stw	zero,0(r2)
		// clear audio FIFOs
		alt_up_audio_reset_audio_core (audio_dev);
     efc:	e13ffd17 	ldw	r4,-12(fp)
     f00:	00028340 	call	2834 <alt_up_audio_reset_audio_core>
		// enable audio-in interrupts
		alt_up_audio_enable_read_interrupt (audio_dev);
     f04:	e13ffd17 	ldw	r4,-12(fp)
     f08:	00026840 	call	2684 <alt_up_audio_enable_read_interrupt>
     f0c:	00000a06 	br	f38 <pushbutton_ISR+0xa4>
	}
	else if (KEY_value == 0x4)									// check KEY2
     f10:	e0bffc17 	ldw	r2,-16(fp)
     f14:	10800118 	cmpnei	r2,r2,4
     f18:	1000071e 	bne	r2,zero,f38 <pushbutton_ISR+0xa4>
	{
		// reset counter to start playback
		buf_index_play = 0;
     f1c:	00800074 	movhi	r2,1
     f20:	10b62a04 	addi	r2,r2,-10072
     f24:	10000015 	stw	zero,0(r2)
		// clear audio FIFOs
		alt_up_audio_reset_audio_core (audio_dev);
     f28:	e13ffd17 	ldw	r4,-12(fp)
     f2c:	00028340 	call	2834 <alt_up_audio_reset_audio_core>
		// enable audio-out interrupts
		alt_up_audio_enable_write_interrupt (audio_dev);
     f30:	e13ffd17 	ldw	r4,-12(fp)
     f34:	00027200 	call	2720 <alt_up_audio_enable_write_interrupt>
	}
	return;
}
     f38:	e037883a 	mov	sp,fp
     f3c:	dfc00117 	ldw	ra,4(sp)
     f40:	df000017 	ldw	fp,0(sp)
     f44:	dec00204 	addi	sp,sp,8
     f48:	f800283a 	ret

00000f4c <memcpy>:
     f4c:	01c003c4 	movi	r7,15
     f50:	2007883a 	mov	r3,r4
     f54:	3980032e 	bgeu	r7,r6,f64 <memcpy+0x18>
     f58:	2904b03a 	or	r2,r5,r4
     f5c:	108000cc 	andi	r2,r2,3
     f60:	10000926 	beq	r2,zero,f88 <memcpy+0x3c>
     f64:	30000626 	beq	r6,zero,f80 <memcpy+0x34>
     f68:	30cd883a 	add	r6,r6,r3
     f6c:	28800003 	ldbu	r2,0(r5)
     f70:	29400044 	addi	r5,r5,1
     f74:	18800005 	stb	r2,0(r3)
     f78:	18c00044 	addi	r3,r3,1
     f7c:	30fffb1e 	bne	r6,r3,f6c <memcpy+0x20>
     f80:	2005883a 	mov	r2,r4
     f84:	f800283a 	ret
     f88:	3811883a 	mov	r8,r7
     f8c:	200f883a 	mov	r7,r4
     f90:	28c00017 	ldw	r3,0(r5)
     f94:	31bffc04 	addi	r6,r6,-16
     f98:	38c00015 	stw	r3,0(r7)
     f9c:	28800117 	ldw	r2,4(r5)
     fa0:	38800115 	stw	r2,4(r7)
     fa4:	28c00217 	ldw	r3,8(r5)
     fa8:	38c00215 	stw	r3,8(r7)
     fac:	28800317 	ldw	r2,12(r5)
     fb0:	29400404 	addi	r5,r5,16
     fb4:	38800315 	stw	r2,12(r7)
     fb8:	39c00404 	addi	r7,r7,16
     fbc:	41bff436 	bltu	r8,r6,f90 <memcpy+0x44>
     fc0:	008000c4 	movi	r2,3
     fc4:	1180072e 	bgeu	r2,r6,fe4 <memcpy+0x98>
     fc8:	1007883a 	mov	r3,r2
     fcc:	28800017 	ldw	r2,0(r5)
     fd0:	31bfff04 	addi	r6,r6,-4
     fd4:	29400104 	addi	r5,r5,4
     fd8:	38800015 	stw	r2,0(r7)
     fdc:	39c00104 	addi	r7,r7,4
     fe0:	19bffa36 	bltu	r3,r6,fcc <memcpy+0x80>
     fe4:	3807883a 	mov	r3,r7
     fe8:	003fde06 	br	f64 <memcpy+0x18>

00000fec <memset>:
     fec:	008000c4 	movi	r2,3
     ff0:	29403fcc 	andi	r5,r5,255
     ff4:	2007883a 	mov	r3,r4
     ff8:	1180022e 	bgeu	r2,r6,1004 <memset+0x18>
     ffc:	2084703a 	and	r2,r4,r2
    1000:	10000826 	beq	r2,zero,1024 <memset+0x38>
    1004:	30000526 	beq	r6,zero,101c <memset+0x30>
    1008:	2805883a 	mov	r2,r5
    100c:	30cd883a 	add	r6,r6,r3
    1010:	18800005 	stb	r2,0(r3)
    1014:	18c00044 	addi	r3,r3,1
    1018:	19bffd1e 	bne	r3,r6,1010 <memset+0x24>
    101c:	2005883a 	mov	r2,r4
    1020:	f800283a 	ret
    1024:	2804923a 	slli	r2,r5,8
    1028:	020003c4 	movi	r8,15
    102c:	200f883a 	mov	r7,r4
    1030:	2884b03a 	or	r2,r5,r2
    1034:	1006943a 	slli	r3,r2,16
    1038:	10c6b03a 	or	r3,r2,r3
    103c:	41800a2e 	bgeu	r8,r6,1068 <memset+0x7c>
    1040:	4005883a 	mov	r2,r8
    1044:	31bffc04 	addi	r6,r6,-16
    1048:	38c00015 	stw	r3,0(r7)
    104c:	38c00115 	stw	r3,4(r7)
    1050:	38c00215 	stw	r3,8(r7)
    1054:	38c00315 	stw	r3,12(r7)
    1058:	39c00404 	addi	r7,r7,16
    105c:	11bff936 	bltu	r2,r6,1044 <memset+0x58>
    1060:	008000c4 	movi	r2,3
    1064:	1180052e 	bgeu	r2,r6,107c <memset+0x90>
    1068:	31bfff04 	addi	r6,r6,-4
    106c:	008000c4 	movi	r2,3
    1070:	38c00015 	stw	r3,0(r7)
    1074:	39c00104 	addi	r7,r7,4
    1078:	11bffb36 	bltu	r2,r6,1068 <memset+0x7c>
    107c:	3807883a 	mov	r3,r7
    1080:	003fe006 	br	1004 <memset+0x18>

00001084 <alt_irq_register>:
 */
 
int alt_irq_register (alt_u32 id, 
                      void* context, 
                      alt_isr_func handler)
{
    1084:	deffef04 	addi	sp,sp,-68
    1088:	df001015 	stw	fp,64(sp)
    108c:	df001004 	addi	fp,sp,64
    1090:	e13ffc15 	stw	r4,-16(fp)
    1094:	e17ffd15 	stw	r5,-12(fp)
    1098:	e1bffe15 	stw	r6,-8(fp)
  int rc = -EINVAL;  
    109c:	00bffa84 	movi	r2,-22
    10a0:	e0bffb15 	stw	r2,-20(fp)
  alt_irq_context status;

  if (id < ALT_NIRQ)
    10a4:	e0bffc17 	ldw	r2,-16(fp)
    10a8:	10800828 	cmpgeui	r2,r2,32
    10ac:	1000601e 	bne	r2,zero,1230 <alt_irq_register+0x1ac>
static ALT_INLINE alt_irq_context ALT_ALWAYS_INLINE 
       alt_irq_disable_all (void)
{
  alt_irq_context context;

  NIOS2_READ_STATUS (context);
    10b0:	0005303a 	rdctl	r2,status
    10b4:	e0bff915 	stw	r2,-28(fp)

  NIOS2_WRITE_STATUS (context & ~NIOS2_STATUS_PIE_MSK);
    10b8:	e0fff917 	ldw	r3,-28(fp)
    10bc:	00bfff84 	movi	r2,-2
    10c0:	1884703a 	and	r2,r3,r2
    10c4:	1001703a 	wrctl	status,r2
  
  return context;
    10c8:	e0bff917 	ldw	r2,-28(fp)
     * interrupts are disabled while the handler tables are updated to ensure
     * that an interrupt doesn't occur while the tables are in an inconsistant
     * state.
     */

    status = alt_irq_disable_all ();
    10cc:	e0bffa15 	stw	r2,-24(fp)

    alt_irq[id].handler = handler;
    10d0:	e0bffc17 	ldw	r2,-16(fp)
    10d4:	00c00fb4 	movhi	r3,62
    10d8:	18f8af04 	addi	r3,r3,-7492
    10dc:	100490fa 	slli	r2,r2,3
    10e0:	10c7883a 	add	r3,r2,r3
    10e4:	e0bffe17 	ldw	r2,-8(fp)
    10e8:	18800015 	stw	r2,0(r3)
    alt_irq[id].context = context;
    10ec:	e0bffc17 	ldw	r2,-16(fp)
    10f0:	00c00fb4 	movhi	r3,62
    10f4:	18f8af04 	addi	r3,r3,-7492
    10f8:	100490fa 	slli	r2,r2,3
    10fc:	10c5883a 	add	r2,r2,r3
    1100:	10c00104 	addi	r3,r2,4
    1104:	e0bffd17 	ldw	r2,-12(fp)
    1108:	18800015 	stw	r2,0(r3)

    rc = (handler) ? alt_irq_enable (id): alt_irq_disable (id);
    110c:	e0bffe17 	ldw	r2,-8(fp)
    1110:	1005003a 	cmpeq	r2,r2,zero
    1114:	1000201e 	bne	r2,zero,1198 <alt_irq_register+0x114>
    1118:	e0bffc17 	ldw	r2,-16(fp)
    111c:	e0bff715 	stw	r2,-36(fp)
static ALT_INLINE alt_irq_context ALT_ALWAYS_INLINE 
       alt_irq_disable_all (void)
{
  alt_irq_context context;

  NIOS2_READ_STATUS (context);
    1120:	0005303a 	rdctl	r2,status
    1124:	e0bff615 	stw	r2,-40(fp)

  NIOS2_WRITE_STATUS (context & ~NIOS2_STATUS_PIE_MSK);
    1128:	e0fff617 	ldw	r3,-40(fp)
    112c:	00bfff84 	movi	r2,-2
    1130:	1884703a 	and	r2,r3,r2
    1134:	1001703a 	wrctl	status,r2
  
  return context;
    1138:	e0bff617 	ldw	r2,-40(fp)
static ALT_INLINE int ALT_ALWAYS_INLINE alt_irq_enable (alt_u32 id)
{
  alt_irq_context  status;
  extern volatile alt_u32 alt_irq_active;

  status = alt_irq_disable_all ();
    113c:	e0bff815 	stw	r2,-32(fp)

  alt_irq_active |= (1 << id);
    1140:	e0fff717 	ldw	r3,-36(fp)
    1144:	00800044 	movi	r2,1
    1148:	10c4983a 	sll	r2,r2,r3
    114c:	1007883a 	mov	r3,r2
    1150:	00800074 	movhi	r2,1
    1154:	10b62c04 	addi	r2,r2,-10064
    1158:	10800017 	ldw	r2,0(r2)
    115c:	1886b03a 	or	r3,r3,r2
    1160:	00800074 	movhi	r2,1
    1164:	10b62c04 	addi	r2,r2,-10064
    1168:	10c00015 	stw	r3,0(r2)
  NIOS2_WRITE_IENABLE (alt_irq_active);
    116c:	00800074 	movhi	r2,1
    1170:	10b62c04 	addi	r2,r2,-10064
    1174:	10800017 	ldw	r2,0(r2)
    1178:	100170fa 	wrctl	ienable,r2
    117c:	e0bff817 	ldw	r2,-32(fp)
    1180:	e0bff515 	stw	r2,-44(fp)
  status &= ~NIOS2_STATUS_PIE_MSK;
  status |= (context & NIOS2_STATUS_PIE_MSK);
  
  NIOS2_WRITE_STATUS (status);
#else
  NIOS2_WRITE_STATUS (context);
    1184:	e0bff517 	ldw	r2,-44(fp)
    1188:	1001703a 	wrctl	status,r2

  alt_irq_enable_all(status);

  return 0;
    118c:	0005883a 	mov	r2,zero
    1190:	e0bfff15 	stw	r2,-4(fp)
    1194:	00002006 	br	1218 <alt_irq_register+0x194>
    1198:	e0bffc17 	ldw	r2,-16(fp)
    119c:	e0bff315 	stw	r2,-52(fp)
static ALT_INLINE alt_irq_context ALT_ALWAYS_INLINE 
       alt_irq_disable_all (void)
{
  alt_irq_context context;

  NIOS2_READ_STATUS (context);
    11a0:	0005303a 	rdctl	r2,status
    11a4:	e0bff215 	stw	r2,-56(fp)

  NIOS2_WRITE_STATUS (context & ~NIOS2_STATUS_PIE_MSK);
    11a8:	e0fff217 	ldw	r3,-56(fp)
    11ac:	00bfff84 	movi	r2,-2
    11b0:	1884703a 	and	r2,r3,r2
    11b4:	1001703a 	wrctl	status,r2
  
  return context;
    11b8:	e0bff217 	ldw	r2,-56(fp)
static ALT_INLINE int ALT_ALWAYS_INLINE alt_irq_disable (alt_u32 id)
{
  alt_irq_context  status;
  extern volatile alt_u32 alt_irq_active;

  status = alt_irq_disable_all ();
    11bc:	e0bff415 	stw	r2,-48(fp)

  alt_irq_active &= ~(1 << id);
    11c0:	e0fff317 	ldw	r3,-52(fp)
    11c4:	00800044 	movi	r2,1
    11c8:	10c4983a 	sll	r2,r2,r3
    11cc:	0084303a 	nor	r2,zero,r2
    11d0:	1007883a 	mov	r3,r2
    11d4:	00800074 	movhi	r2,1
    11d8:	10b62c04 	addi	r2,r2,-10064
    11dc:	10800017 	ldw	r2,0(r2)
    11e0:	1886703a 	and	r3,r3,r2
    11e4:	00800074 	movhi	r2,1
    11e8:	10b62c04 	addi	r2,r2,-10064
    11ec:	10c00015 	stw	r3,0(r2)
  NIOS2_WRITE_IENABLE (alt_irq_active);
    11f0:	00800074 	movhi	r2,1
    11f4:	10b62c04 	addi	r2,r2,-10064
    11f8:	10800017 	ldw	r2,0(r2)
    11fc:	100170fa 	wrctl	ienable,r2
    1200:	e0bff417 	ldw	r2,-48(fp)
    1204:	e0bff115 	stw	r2,-60(fp)
  status &= ~NIOS2_STATUS_PIE_MSK;
  status |= (context & NIOS2_STATUS_PIE_MSK);
  
  NIOS2_WRITE_STATUS (status);
#else
  NIOS2_WRITE_STATUS (context);
    1208:	e0bff117 	ldw	r2,-60(fp)
    120c:	1001703a 	wrctl	status,r2

  alt_irq_enable_all(status);

  return 0;
    1210:	0005883a 	mov	r2,zero
    1214:	e0bfff15 	stw	r2,-4(fp)
    1218:	e0bfff17 	ldw	r2,-4(fp)
    121c:	e0bffb15 	stw	r2,-20(fp)
    1220:	e0bffa17 	ldw	r2,-24(fp)
    1224:	e0bff015 	stw	r2,-64(fp)
    1228:	e0bff017 	ldw	r2,-64(fp)
    122c:	1001703a 	wrctl	status,r2

    alt_irq_enable_all(status);
  }
  return rc; 
    1230:	e0bffb17 	ldw	r2,-20(fp)
}
    1234:	e037883a 	mov	sp,fp
    1238:	df000017 	ldw	fp,0(sp)
    123c:	dec00104 	addi	sp,sp,4
    1240:	f800283a 	ret

00001244 <alt_load>:
 * there is no bootloader, so this application is responsible for loading to
 * RAM any sections that are required.
 */  

void alt_load (void)
{
    1244:	defffe04 	addi	sp,sp,-8
    1248:	dfc00115 	stw	ra,4(sp)
    124c:	df000015 	stw	fp,0(sp)
    1250:	d839883a 	mov	fp,sp
  /* 
   * Copy the .rwdata section. 
   */

  alt_load_section (&__flash_rwdata_start, 
    1254:	01000074 	movhi	r4,1
    1258:	212ea704 	addi	r4,r4,-17764
    125c:	01400074 	movhi	r5,1
    1260:	29672804 	addi	r5,r5,-25440
    1264:	01800074 	movhi	r6,1
    1268:	31aea704 	addi	r6,r6,-17764
    126c:	00012c40 	call	12c4 <alt_load_section>

  /*
   * Copy the exception handler.
   */

  alt_load_section (&__flash_exceptions_start, 
    1270:	01000034 	movhi	r4,0
    1274:	21000804 	addi	r4,r4,32
    1278:	01400034 	movhi	r5,0
    127c:	29400804 	addi	r5,r5,32
    1280:	01800034 	movhi	r6,0
    1284:	31806e04 	addi	r6,r6,440
    1288:	00012c40 	call	12c4 <alt_load_section>

  /*
   * Copy the .rodata section.
   */

  alt_load_section (&__flash_rodata_start, 
    128c:	01000074 	movhi	r4,1
    1290:	2125f504 	addi	r4,r4,-26668
    1294:	01400074 	movhi	r5,1
    1298:	2965f504 	addi	r5,r5,-26668
    129c:	01800074 	movhi	r6,1
    12a0:	31a72804 	addi	r6,r6,-25440
    12a4:	00012c40 	call	12c4 <alt_load_section>
  
  /*
   * Now ensure that the caches are in synch.
   */
  
  alt_dcache_flush_all();
    12a8:	00060940 	call	6094 <alt_dcache_flush_all>
  alt_icache_flush_all();
    12ac:	000634c0 	call	634c <alt_icache_flush_all>
}
    12b0:	e037883a 	mov	sp,fp
    12b4:	dfc00117 	ldw	ra,4(sp)
    12b8:	df000017 	ldw	fp,0(sp)
    12bc:	dec00204 	addi	sp,sp,8
    12c0:	f800283a 	ret

000012c4 <alt_load_section>:
 */

static void ALT_INLINE alt_load_section (alt_u32* from, 
                                         alt_u32* to, 
                                         alt_u32* end)
{
    12c4:	defffc04 	addi	sp,sp,-16
    12c8:	df000315 	stw	fp,12(sp)
    12cc:	df000304 	addi	fp,sp,12
    12d0:	e13ffd15 	stw	r4,-12(fp)
    12d4:	e17ffe15 	stw	r5,-8(fp)
    12d8:	e1bfff15 	stw	r6,-4(fp)
  if (to != from)
    12dc:	e0fffe17 	ldw	r3,-8(fp)
    12e0:	e0bffd17 	ldw	r2,-12(fp)
    12e4:	18800e26 	beq	r3,r2,1320 <alt_load_section+0x5c>
  {
    while( to != end )
    12e8:	00000a06 	br	1314 <alt_load_section+0x50>
    {
      *to++ = *from++;
    12ec:	e0bffd17 	ldw	r2,-12(fp)
    12f0:	10c00017 	ldw	r3,0(r2)
    12f4:	e0bffe17 	ldw	r2,-8(fp)
    12f8:	10c00015 	stw	r3,0(r2)
    12fc:	e0bffe17 	ldw	r2,-8(fp)
    1300:	10800104 	addi	r2,r2,4
    1304:	e0bffe15 	stw	r2,-8(fp)
    1308:	e0bffd17 	ldw	r2,-12(fp)
    130c:	10800104 	addi	r2,r2,4
    1310:	e0bffd15 	stw	r2,-12(fp)
                                         alt_u32* to, 
                                         alt_u32* end)
{
  if (to != from)
  {
    while( to != end )
    1314:	e0fffe17 	ldw	r3,-8(fp)
    1318:	e0bfff17 	ldw	r2,-4(fp)
    131c:	18bff31e 	bne	r3,r2,12ec <alt_load_section+0x28>
    {
      *to++ = *from++;
    }
  }
}
    1320:	e037883a 	mov	sp,fp
    1324:	df000017 	ldw	fp,0(sp)
    1328:	dec00104 	addi	sp,sp,4
    132c:	f800283a 	ret

00001330 <alt_main>:
 * devices/filesystems/components in the system; and call the entry point for
 * the users application, i.e. main().
 */

void alt_main (void)
{
    1330:	defffd04 	addi	sp,sp,-12
    1334:	dfc00215 	stw	ra,8(sp)
    1338:	df000115 	stw	fp,4(sp)
    133c:	df000104 	addi	fp,sp,4
#endif

  /* ALT LOG - please see HAL/sys/alt_log_printf.h for details */
  ALT_LOG_PRINT_BOOT("[alt_main.c] Entering alt_main, calling alt_irq_init.\r\n");
  /* Initialize the interrupt controller. */
  alt_irq_init (NULL);
    1340:	0009883a 	mov	r4,zero
    1344:	00016340 	call	1634 <alt_irq_init>
  ALT_LOG_PRINT_BOOT("[alt_main.c] Done OS Init, calling alt_sem_create.\r\n");
  ALT_SEM_CREATE (&alt_fd_list_lock, 1);

  /* Initialize the device drivers/software components. */
  ALT_LOG_PRINT_BOOT("[alt_main.c] Calling alt_sys_init.\r\n");
  alt_sys_init();
    1348:	00016680 	call	1668 <alt_sys_init>
   * devices be present (not equal to /dev/null) and if direct drivers
   * aren't being used.
   */

    ALT_LOG_PRINT_BOOT("[alt_main.c] Redirecting IO.\r\n");
    alt_io_redirect(ALT_STDOUT, ALT_STDIN, ALT_STDERR);
    134c:	01000074 	movhi	r4,1
    1350:	2126ba04 	addi	r4,r4,-25880
    1354:	01400074 	movhi	r5,1
    1358:	2966ba04 	addi	r5,r5,-25880
    135c:	01800074 	movhi	r6,1
    1360:	31a6ba04 	addi	r6,r6,-25880
    1364:	00064400 	call	6440 <alt_io_redirect>
  /* 
   * Call the C++ constructors 
   */

  ALT_LOG_PRINT_BOOT("[alt_main.c] Calling C++ constructors.\r\n");
  _do_ctors ();
    1368:	00061f00 	call	61f0 <_do_ctors>
   * redefined as _exit()). This is in the interest of reducing code footprint,
   * in that the atexit() overhead is removed when it's not needed.
   */

  ALT_LOG_PRINT_BOOT("[alt_main.c] Calling atexit.\r\n");
  atexit (_do_dtors);
    136c:	01000034 	movhi	r4,0
    1370:	21189504 	addi	r4,r4,25172
    1374:	0006d640 	call	6d64 <atexit>
  ALT_LOG_PRINT_BOOT("[alt_main.c] Calling main.\r\n");

#ifdef ALT_NO_EXIT
  main (alt_argc, alt_argv, alt_envp);
#else
  result = main (alt_argc, alt_argv, alt_envp);
    1378:	d1279417 	ldw	r4,-25008(gp)
    137c:	d1679517 	ldw	r5,-25004(gp)
    1380:	d1a79617 	ldw	r6,-25000(gp)
    1384:	00005d00 	call	5d0 <main>
    1388:	e0bfff15 	stw	r2,-4(fp)
  close(STDOUT_FILENO);
    138c:	01000044 	movi	r4,1
    1390:	0005f380 	call	5f38 <close>
  exit (result);
    1394:	e13fff17 	ldw	r4,-4(fp)
    1398:	0006d780 	call	6d78 <exit>

0000139c <alt_printf>:
/* 
 * ALT printf function 
 */
void 
alt_printf(const char* fmt, ... )
{
    139c:	defff204 	addi	sp,sp,-56
    13a0:	dfc00a15 	stw	ra,40(sp)
    13a4:	df000915 	stw	fp,36(sp)
    13a8:	df000904 	addi	fp,sp,36
    13ac:	e1400215 	stw	r5,8(fp)
    13b0:	e1800315 	stw	r6,12(fp)
    13b4:	e1c00415 	stw	r7,16(fp)
    13b8:	e13fff15 	stw	r4,-4(fp)
	va_list args;
	va_start(args, fmt);
    13bc:	e0800204 	addi	r2,fp,8
    13c0:	e0bffe15 	stw	r2,-8(fp)
    const char *w;
    char c;

    /* Process format string. */
    w = fmt;
    13c4:	e0bfff17 	ldw	r2,-4(fp)
    13c8:	e0bffd15 	stw	r2,-12(fp)
    while ((c = *w++) != 0)
    13cc:	00007806 	br	15b0 <alt_printf+0x214>
    {
        /* If not a format escape character, just print  */
        /* character.  Otherwise, process format string. */
        if (c != '%')
    13d0:	e0bffc07 	ldb	r2,-16(fp)
    13d4:	10800960 	cmpeqi	r2,r2,37
    13d8:	1000031e 	bne	r2,zero,13e8 <alt_printf+0x4c>
        {
            alt_putchar(c);
    13dc:	e13ffc07 	ldb	r4,-16(fp)
    13e0:	00015f40 	call	15f4 <alt_putchar>
    13e4:	00007206 	br	15b0 <alt_printf+0x214>
        }
        else
        {
            /* Get format character.  If none     */
            /* available, processing is complete. */
            if ((c = *w++) != 0)
    13e8:	e0bffd17 	ldw	r2,-12(fp)
    13ec:	10800003 	ldbu	r2,0(r2)
    13f0:	e0bffc05 	stb	r2,-16(fp)
    13f4:	e0bffc07 	ldb	r2,-16(fp)
    13f8:	1004c03a 	cmpne	r2,r2,zero
    13fc:	1007883a 	mov	r3,r2
    1400:	e0bffd17 	ldw	r2,-12(fp)
    1404:	10800044 	addi	r2,r2,1
    1408:	e0bffd15 	stw	r2,-12(fp)
    140c:	18803fcc 	andi	r2,r3,255
    1410:	1005003a 	cmpeq	r2,r2,zero
    1414:	1000721e 	bne	r2,zero,15e0 <alt_printf+0x244>
            {
                if (c == '%')
    1418:	e0bffc07 	ldb	r2,-16(fp)
    141c:	10800958 	cmpnei	r2,r2,37
    1420:	1000031e 	bne	r2,zero,1430 <alt_printf+0x94>
                {
                    /* Process "%" escape sequence. */
                    alt_putchar(c);
    1424:	e13ffc07 	ldb	r4,-16(fp)
    1428:	00015f40 	call	15f4 <alt_putchar>
    142c:	00006006 	br	15b0 <alt_printf+0x214>
                } 
                else if (c == 'c')
    1430:	e0bffc07 	ldb	r2,-16(fp)
    1434:	108018d8 	cmpnei	r2,r2,99
    1438:	1000091e 	bne	r2,zero,1460 <alt_printf+0xc4>
                {
                    int v = va_arg(args, int);
    143c:	e0fffe17 	ldw	r3,-8(fp)
    1440:	18800104 	addi	r2,r3,4
    1444:	e0bffe15 	stw	r2,-8(fp)
    1448:	1805883a 	mov	r2,r3
    144c:	10800017 	ldw	r2,0(r2)
    1450:	e0bffb15 	stw	r2,-20(fp)
                    alt_putchar(v);
    1454:	e13ffb17 	ldw	r4,-20(fp)
    1458:	00015f40 	call	15f4 <alt_putchar>
    145c:	00005406 	br	15b0 <alt_printf+0x214>
                }
                else if (c == 'x')
    1460:	e0bffc07 	ldb	r2,-16(fp)
    1464:	10801e18 	cmpnei	r2,r2,120
    1468:	1000371e 	bne	r2,zero,1548 <alt_printf+0x1ac>
                {
                    /* Process hexadecimal number format. */
                    unsigned long v = va_arg(args, unsigned long);
    146c:	e0fffe17 	ldw	r3,-8(fp)
    1470:	18800104 	addi	r2,r3,4
    1474:	e0bffe15 	stw	r2,-8(fp)
    1478:	1805883a 	mov	r2,r3
    147c:	10800017 	ldw	r2,0(r2)
    1480:	e0bffa15 	stw	r2,-24(fp)
                    unsigned long digit;
                    int digit_shift;

                    /* If the number value is zero, just print and continue. */
                    if (v == 0)
    1484:	e0bffa17 	ldw	r2,-24(fp)
    1488:	1004c03a 	cmpne	r2,r2,zero
    148c:	1000031e 	bne	r2,zero,149c <alt_printf+0x100>
                    {
                        alt_putchar('0');
    1490:	01000c04 	movi	r4,48
    1494:	00015f40 	call	15f4 <alt_putchar>
                        continue;
    1498:	00004506 	br	15b0 <alt_printf+0x214>
                    }

                    /* Find first non-zero digit. */
                    digit_shift = 28;
    149c:	00800704 	movi	r2,28
    14a0:	e0bff815 	stw	r2,-32(fp)
                    while (!(v & (0xF << digit_shift)))
    14a4:	00000306 	br	14b4 <alt_printf+0x118>
                        digit_shift -= 4;
    14a8:	e0bff817 	ldw	r2,-32(fp)
    14ac:	10bfff04 	addi	r2,r2,-4
    14b0:	e0bff815 	stw	r2,-32(fp)
                        continue;
                    }

                    /* Find first non-zero digit. */
                    digit_shift = 28;
                    while (!(v & (0xF << digit_shift)))
    14b4:	00c003c4 	movi	r3,15
    14b8:	e0bff817 	ldw	r2,-32(fp)
    14bc:	1884983a 	sll	r2,r3,r2
    14c0:	1007883a 	mov	r3,r2
    14c4:	e0bffa17 	ldw	r2,-24(fp)
    14c8:	1884703a 	and	r2,r3,r2
    14cc:	1005003a 	cmpeq	r2,r2,zero
    14d0:	103ff51e 	bne	r2,zero,14a8 <alt_printf+0x10c>
                        digit_shift -= 4;

                    /* Print digits. */
                    for (; digit_shift >= 0; digit_shift -= 4)
    14d4:	00001806 	br	1538 <alt_printf+0x19c>
                    {
                        digit = (v & (0xF << digit_shift)) >> digit_shift;
    14d8:	00c003c4 	movi	r3,15
    14dc:	e0bff817 	ldw	r2,-32(fp)
    14e0:	1884983a 	sll	r2,r3,r2
    14e4:	1007883a 	mov	r3,r2
    14e8:	e0bffa17 	ldw	r2,-24(fp)
    14ec:	1886703a 	and	r3,r3,r2
    14f0:	e0bff817 	ldw	r2,-32(fp)
    14f4:	1884d83a 	srl	r2,r3,r2
    14f8:	e0bff915 	stw	r2,-28(fp)
                        if (digit <= 9)
    14fc:	e0bff917 	ldw	r2,-28(fp)
    1500:	108002a8 	cmpgeui	r2,r2,10
    1504:	1000041e 	bne	r2,zero,1518 <alt_printf+0x17c>
                            c = '0' + digit;
    1508:	e0bff917 	ldw	r2,-28(fp)
    150c:	10800c04 	addi	r2,r2,48
    1510:	e0bffc05 	stb	r2,-16(fp)
    1514:	00000306 	br	1524 <alt_printf+0x188>
                        else
                            c = 'a' + digit - 10;
    1518:	e0bff917 	ldw	r2,-28(fp)
    151c:	108015c4 	addi	r2,r2,87
    1520:	e0bffc05 	stb	r2,-16(fp)
                        alt_putchar(c);
    1524:	e13ffc07 	ldb	r4,-16(fp)
    1528:	00015f40 	call	15f4 <alt_putchar>
                    digit_shift = 28;
                    while (!(v & (0xF << digit_shift)))
                        digit_shift -= 4;

                    /* Print digits. */
                    for (; digit_shift >= 0; digit_shift -= 4)
    152c:	e0bff817 	ldw	r2,-32(fp)
    1530:	10bfff04 	addi	r2,r2,-4
    1534:	e0bff815 	stw	r2,-32(fp)
    1538:	e0bff817 	ldw	r2,-32(fp)
    153c:	1004403a 	cmpge	r2,r2,zero
    1540:	103fe51e 	bne	r2,zero,14d8 <alt_printf+0x13c>
    1544:	00001a06 	br	15b0 <alt_printf+0x214>
                        else
                            c = 'a' + digit - 10;
                        alt_putchar(c);
                    }
                }
                else if (c == 's')
    1548:	e0bffc07 	ldb	r2,-16(fp)
    154c:	10801cd8 	cmpnei	r2,r2,115
    1550:	1000171e 	bne	r2,zero,15b0 <alt_printf+0x214>
                {
                    /* Process string format. */
                    char *s = va_arg(args, char *);
    1554:	e0fffe17 	ldw	r3,-8(fp)
    1558:	18800104 	addi	r2,r3,4
    155c:	e0bffe15 	stw	r2,-8(fp)
    1560:	1805883a 	mov	r2,r3
    1564:	10800017 	ldw	r2,0(r2)
    1568:	e0bff715 	stw	r2,-36(fp)

                    while(*s)
    156c:	00000906 	br	1594 <alt_printf+0x1f8>
                      alt_putchar(*s++);
    1570:	e0bff717 	ldw	r2,-36(fp)
    1574:	10800003 	ldbu	r2,0(r2)
    1578:	11003fcc 	andi	r4,r2,255
    157c:	2100201c 	xori	r4,r4,128
    1580:	213fe004 	addi	r4,r4,-128
    1584:	e0bff717 	ldw	r2,-36(fp)
    1588:	10800044 	addi	r2,r2,1
    158c:	e0bff715 	stw	r2,-36(fp)
    1590:	00015f40 	call	15f4 <alt_putchar>
                else if (c == 's')
                {
                    /* Process string format. */
                    char *s = va_arg(args, char *);

                    while(*s)
    1594:	e0bff717 	ldw	r2,-36(fp)
    1598:	10800003 	ldbu	r2,0(r2)
    159c:	10803fcc 	andi	r2,r2,255
    15a0:	1080201c 	xori	r2,r2,128
    15a4:	10bfe004 	addi	r2,r2,-128
    15a8:	1004c03a 	cmpne	r2,r2,zero
    15ac:	103ff01e 	bne	r2,zero,1570 <alt_printf+0x1d4>
    const char *w;
    char c;

    /* Process format string. */
    w = fmt;
    while ((c = *w++) != 0)
    15b0:	e0bffd17 	ldw	r2,-12(fp)
    15b4:	10800003 	ldbu	r2,0(r2)
    15b8:	e0bffc05 	stb	r2,-16(fp)
    15bc:	e0bffc07 	ldb	r2,-16(fp)
    15c0:	1004c03a 	cmpne	r2,r2,zero
    15c4:	1007883a 	mov	r3,r2
    15c8:	e0bffd17 	ldw	r2,-12(fp)
    15cc:	10800044 	addi	r2,r2,1
    15d0:	e0bffd15 	stw	r2,-12(fp)
    15d4:	18803fcc 	andi	r2,r3,255
    15d8:	1004c03a 	cmpne	r2,r2,zero
    15dc:	103f7c1e 	bne	r2,zero,13d0 <alt_printf+0x34>
            {
                break;
            }
        }
    }
}
    15e0:	e037883a 	mov	sp,fp
    15e4:	dfc00117 	ldw	ra,4(sp)
    15e8:	df000017 	ldw	fp,0(sp)
    15ec:	dec00504 	addi	sp,sp,20
    15f0:	f800283a 	ret

000015f4 <alt_putchar>:
 * Uses the ALT_DRIVER_WRITE() macro to call directly to driver if available.
 * Otherwise, uses newlib provided putchar() routine.
 */
int 
alt_putchar(int c)
{
    15f4:	defffd04 	addi	sp,sp,-12
    15f8:	dfc00215 	stw	ra,8(sp)
    15fc:	df000115 	stw	fp,4(sp)
    1600:	df000104 	addi	fp,sp,4
    1604:	e13fff15 	stw	r4,-4(fp)
    if (ALT_DRIVER_WRITE(ALT_STDOUT_DEV, &c1, 1, 0) == -1) {
        return -1;
    }
    return c;
#else
    return putchar(c);
    1608:	00800074 	movhi	r2,1
    160c:	10aea204 	addi	r2,r2,-17784
    1610:	10800017 	ldw	r2,0(r2)
    1614:	11400217 	ldw	r5,8(r2)
    1618:	e13fff17 	ldw	r4,-4(fp)
    161c:	0006e240 	call	6e24 <putc>
#endif
}
    1620:	e037883a 	mov	sp,fp
    1624:	dfc00117 	ldw	ra,4(sp)
    1628:	df000017 	ldw	fp,0(sp)
    162c:	dec00204 	addi	sp,sp,8
    1630:	f800283a 	ret

00001634 <alt_irq_init>:
 * The "base" parameter is ignored and only
 * present for backwards-compatibility.
 */

void alt_irq_init ( const void* base )
{
    1634:	defffd04 	addi	sp,sp,-12
    1638:	dfc00215 	stw	ra,8(sp)
    163c:	df000115 	stw	fp,4(sp)
    1640:	df000104 	addi	fp,sp,4
    1644:	e13fff15 	stw	r4,-4(fp)
    ALTERA_NIOS2_QSYS_IRQ_INIT ( CPU, CPU);
    1648:	00069b00 	call	69b0 <altera_nios2_qsys_irq_init>
 * alt_irq_cpu_enable_interrupts() enables the CPU to start taking interrupts.
 */
static ALT_INLINE void ALT_ALWAYS_INLINE 
       alt_irq_cpu_enable_interrupts ()
{
    NIOS2_WRITE_STATUS(NIOS2_STATUS_PIE_MSK
    164c:	00800044 	movi	r2,1
    1650:	1001703a 	wrctl	status,r2
    alt_irq_cpu_enable_interrupts();
}
    1654:	e037883a 	mov	sp,fp
    1658:	dfc00117 	ldw	ra,4(sp)
    165c:	df000017 	ldw	fp,0(sp)
    1660:	dec00204 	addi	sp,sp,8
    1664:	f800283a 	ret

00001668 <alt_sys_init>:
 * Initialize the non-interrupt controller devices.
 * Called after alt_irq_init().
 */

void alt_sys_init( void )
{
    1668:	defffd04 	addi	sp,sp,-12
    166c:	dfc00215 	stw	ra,8(sp)
    1670:	df000115 	stw	fp,4(sp)
    1674:	df000104 	addi	fp,sp,4
    ALTERA_AVALON_TIMER_INIT ( INTERVAL_TIMER, Interval_Timer);
    1678:	01040034 	movhi	r4,4096
    167c:	21080004 	addi	r4,r4,8192
    1680:	000b883a 	mov	r5,zero
    1684:	000d883a 	mov	r6,zero
    1688:	01c00204 	movi	r7,8
    168c:	00025bc0 	call	25bc <alt_avalon_timer_sc_init>
    ALTERA_AVALON_JTAG_UART_INIT ( JTAG_UART, JTAG_UART);
    1690:	01000074 	movhi	r4,1
    1694:	21273204 	addi	r4,r4,-25400
    1698:	000b883a 	mov	r5,zero
    169c:	01800204 	movi	r6,8
    16a0:	0001be80 	call	1be8 <altera_avalon_jtag_uart_init>
    16a4:	01000074 	movhi	r4,1
    16a8:	21272804 	addi	r4,r4,-25440
    16ac:	0001a680 	call	1a68 <alt_dev_reg>
    ALTERA_AVALON_SYSID_QSYS_INIT ( SYSID, sysid);
    ALTERA_UP_AVALON_AUDIO_AND_VIDEO_CONFIG_INIT ( AV_CONFIG, AV_Config);
    16b0:	01000074 	movhi	r4,1
    16b4:	212b4004 	addi	r4,r4,-21248
    16b8:	0001a680 	call	1a68 <alt_dev_reg>
    ALTERA_UP_AVALON_AUDIO_INIT ( AUDIO, Audio);
    16bc:	01000074 	movhi	r4,1
    16c0:	212b4c04 	addi	r4,r4,-21200
    16c4:	0001a680 	call	1a68 <alt_dev_reg>
    ALTERA_UP_AVALON_CHARACTER_LCD_INIT ( CHAR_LCD_16X2, Char_LCD_16x2);
    16c8:	01000074 	movhi	r4,1
    16cc:	212b5804 	addi	r4,r4,-21152
    16d0:	0002f000 	call	2f00 <alt_up_character_lcd_init>
    16d4:	01000074 	movhi	r4,1
    16d8:	212b5804 	addi	r4,r4,-21152
    16dc:	0001a680 	call	1a68 <alt_dev_reg>
    ALTERA_UP_AVALON_ETHERNET_INIT ( ETHERNET, Ethernet);
    16e0:	01000074 	movhi	r4,1
    16e4:	212b6304 	addi	r4,r4,-21108
    16e8:	00033800 	call	3380 <alt_up_ethernet_init>
    16ec:	01000074 	movhi	r4,1
    16f0:	212b6304 	addi	r4,r4,-21108
    16f4:	0001a680 	call	1a68 <alt_dev_reg>
    ALTERA_UP_AVALON_IRDA_INIT ( IRDA_UART, IrDA_UART);
    16f8:	01000074 	movhi	r4,1
    16fc:	212b7204 	addi	r4,r4,-21048
    1700:	0001a680 	call	1a68 <alt_dev_reg>
    ALTERA_UP_AVALON_PARALLEL_PORT_INIT ( EXPANSION_JP1, Expansion_JP1);
    1704:	01000074 	movhi	r4,1
    1708:	212b7d04 	addi	r4,r4,-21004
    170c:	0001a680 	call	1a68 <alt_dev_reg>
    ALTERA_UP_AVALON_PARALLEL_PORT_INIT ( EXPANSION_JP2, Expansion_JP2);
    1710:	01000074 	movhi	r4,1
    1714:	212b8804 	addi	r4,r4,-20960
    1718:	0001a680 	call	1a68 <alt_dev_reg>
    ALTERA_UP_AVALON_PARALLEL_PORT_INIT ( GREEN_LEDS, Green_LEDs);
    171c:	01000074 	movhi	r4,1
    1720:	212b9304 	addi	r4,r4,-20916
    1724:	0001a680 	call	1a68 <alt_dev_reg>
    ALTERA_UP_AVALON_PARALLEL_PORT_INIT ( HEX3_HEX0, HEX3_HEX0);
    1728:	01000074 	movhi	r4,1
    172c:	212b9e04 	addi	r4,r4,-20872
    1730:	0001a680 	call	1a68 <alt_dev_reg>
    ALTERA_UP_AVALON_PARALLEL_PORT_INIT ( HEX7_HEX4, HEX7_HEX4);
    1734:	01000074 	movhi	r4,1
    1738:	212ba904 	addi	r4,r4,-20828
    173c:	0001a680 	call	1a68 <alt_dev_reg>
    ALTERA_UP_AVALON_PARALLEL_PORT_INIT ( PUSHBUTTONS, Pushbuttons);
    1740:	01000074 	movhi	r4,1
    1744:	212bb404 	addi	r4,r4,-20784
    1748:	0001a680 	call	1a68 <alt_dev_reg>
    ALTERA_UP_AVALON_PARALLEL_PORT_INIT ( RED_LEDS, Red_LEDs);
    174c:	01000074 	movhi	r4,1
    1750:	212bbf04 	addi	r4,r4,-20740
    1754:	0001a680 	call	1a68 <alt_dev_reg>
    ALTERA_UP_AVALON_PARALLEL_PORT_INIT ( SLIDER_SWITCHES, Slider_Switches);
    1758:	01000074 	movhi	r4,1
    175c:	212bca04 	addi	r4,r4,-20696
    1760:	0001a680 	call	1a68 <alt_dev_reg>
    ALTERA_UP_AVALON_PS2_INIT ( PS2_PORT, PS2_Port);
    1764:	01000074 	movhi	r4,1
    1768:	212bd504 	addi	r4,r4,-20652
    176c:	0003c080 	call	3c08 <alt_up_ps2_init>
    1770:	01000074 	movhi	r4,1
    1774:	212bd504 	addi	r4,r4,-20652
    1778:	0001a680 	call	1a68 <alt_dev_reg>
    ALTERA_UP_AVALON_RS232_INIT ( SERIAL_PORT, Serial_Port);
    177c:	01000074 	movhi	r4,1
    1780:	212be304 	addi	r4,r4,-20596
    1784:	0001a680 	call	1a68 <alt_dev_reg>
    ALTERA_UP_AVALON_USB_INIT ( USB, USB);
    1788:	01000074 	movhi	r4,1
    178c:	212bee04 	addi	r4,r4,-20552
    1790:	0001a680 	call	1a68 <alt_dev_reg>
    ALTERA_UP_AVALON_VIDEO_CHARACTER_BUFFER_WITH_DMA_INIT ( VGA_CHAR_BUFFER, VGA_Char_Buffer);
    1794:	00800074 	movhi	r2,1
    1798:	10abfb04 	addi	r2,r2,-20500
    179c:	10800a17 	ldw	r2,40(r2)
    17a0:	10800104 	addi	r2,r2,4
    17a4:	10800017 	ldw	r2,0(r2)
    17a8:	10ffffcc 	andi	r3,r2,65535
    17ac:	00800074 	movhi	r2,1
    17b0:	10abfb04 	addi	r2,r2,-20500
    17b4:	10c00c15 	stw	r3,48(r2)
    17b8:	00800074 	movhi	r2,1
    17bc:	10abfb04 	addi	r2,r2,-20500
    17c0:	10800a17 	ldw	r2,40(r2)
    17c4:	10800104 	addi	r2,r2,4
    17c8:	10800017 	ldw	r2,0(r2)
    17cc:	1005d43a 	srai	r2,r2,16
    17d0:	10ffffcc 	andi	r3,r2,65535
    17d4:	00800074 	movhi	r2,1
    17d8:	10abfb04 	addi	r2,r2,-20500
    17dc:	10c00d15 	stw	r3,52(r2)
    17e0:	00800074 	movhi	r2,1
    17e4:	10abfb04 	addi	r2,r2,-20500
    17e8:	10800c17 	ldw	r2,48(r2)
    17ec:	10801068 	cmpgeui	r2,r2,65
    17f0:	1000081e 	bne	r2,zero,1814 <alt_sys_init+0x1ac>
    17f4:	00c00074 	movhi	r3,1
    17f8:	18ebfb04 	addi	r3,r3,-20500
    17fc:	00800fc4 	movi	r2,63
    1800:	18800f15 	stw	r2,60(r3)
    1804:	00c00074 	movhi	r3,1
    1808:	18ebfb04 	addi	r3,r3,-20500
    180c:	00800184 	movi	r2,6
    1810:	18801015 	stw	r2,64(r3)
    1814:	00800074 	movhi	r2,1
    1818:	10abfb04 	addi	r2,r2,-20500
    181c:	10800d17 	ldw	r2,52(r2)
    1820:	10800868 	cmpgeui	r2,r2,33
    1824:	1000041e 	bne	r2,zero,1838 <alt_sys_init+0x1d0>
    1828:	00c00074 	movhi	r3,1
    182c:	18ebfb04 	addi	r3,r3,-20500
    1830:	008007c4 	movi	r2,31
    1834:	18801115 	stw	r2,68(r3)
    1838:	01000074 	movhi	r4,1
    183c:	212bfb04 	addi	r4,r4,-20500
    1840:	00045740 	call	4574 <alt_up_char_buffer_init>
    1844:	01000074 	movhi	r4,1
    1848:	212bfb04 	addi	r4,r4,-20500
    184c:	0001a680 	call	1a68 <alt_dev_reg>
    ALTERA_UP_AVALON_VIDEO_PIXEL_BUFFER_DMA_INIT ( VGA_PIXEL_BUFFER, VGA_Pixel_Buffer);
    1850:	00800074 	movhi	r2,1
    1854:	10ac0d04 	addi	r2,r2,-20428
    1858:	10800a17 	ldw	r2,40(r2)
    185c:	10800017 	ldw	r2,0(r2)
    1860:	1007883a 	mov	r3,r2
    1864:	00800074 	movhi	r2,1
    1868:	10ac0d04 	addi	r2,r2,-20428
    186c:	10c00b15 	stw	r3,44(r2)
    1870:	00800074 	movhi	r2,1
    1874:	10ac0d04 	addi	r2,r2,-20428
    1878:	10800a17 	ldw	r2,40(r2)
    187c:	10800104 	addi	r2,r2,4
    1880:	10800017 	ldw	r2,0(r2)
    1884:	1007883a 	mov	r3,r2
    1888:	00800074 	movhi	r2,1
    188c:	10ac0d04 	addi	r2,r2,-20428
    1890:	10c00c15 	stw	r3,48(r2)
    1894:	00800074 	movhi	r2,1
    1898:	10ac0d04 	addi	r2,r2,-20428
    189c:	10800a17 	ldw	r2,40(r2)
    18a0:	10800204 	addi	r2,r2,8
    18a4:	10800017 	ldw	r2,0(r2)
    18a8:	10ffffcc 	andi	r3,r2,65535
    18ac:	00800074 	movhi	r2,1
    18b0:	10ac0d04 	addi	r2,r2,-20428
    18b4:	10c00f15 	stw	r3,60(r2)
    18b8:	00800074 	movhi	r2,1
    18bc:	10ac0d04 	addi	r2,r2,-20428
    18c0:	10800a17 	ldw	r2,40(r2)
    18c4:	10800204 	addi	r2,r2,8
    18c8:	10800017 	ldw	r2,0(r2)
    18cc:	1005d43a 	srai	r2,r2,16
    18d0:	10ffffcc 	andi	r3,r2,65535
    18d4:	00800074 	movhi	r2,1
    18d8:	10ac0d04 	addi	r2,r2,-20428
    18dc:	10c01015 	stw	r3,64(r2)
    18e0:	00800074 	movhi	r2,1
    18e4:	10ac0d04 	addi	r2,r2,-20428
    18e8:	10800a17 	ldw	r2,40(r2)
    18ec:	10800304 	addi	r2,r2,12
    18f0:	10800017 	ldw	r2,0(r2)
    18f4:	1005d07a 	srai	r2,r2,1
    18f8:	10c0004c 	andi	r3,r2,1
    18fc:	00800074 	movhi	r2,1
    1900:	10ac0d04 	addi	r2,r2,-20428
    1904:	10c00d15 	stw	r3,52(r2)
    1908:	00800074 	movhi	r2,1
    190c:	10ac0d04 	addi	r2,r2,-20428
    1910:	10800a17 	ldw	r2,40(r2)
    1914:	10800304 	addi	r2,r2,12
    1918:	10800017 	ldw	r2,0(r2)
    191c:	1005d13a 	srai	r2,r2,4
    1920:	10c003cc 	andi	r3,r2,15
    1924:	00800074 	movhi	r2,1
    1928:	10ac0d04 	addi	r2,r2,-20428
    192c:	10c00e15 	stw	r3,56(r2)
    1930:	00800074 	movhi	r2,1
    1934:	10ac0d04 	addi	r2,r2,-20428
    1938:	10800a17 	ldw	r2,40(r2)
    193c:	10800304 	addi	r2,r2,12
    1940:	10800017 	ldw	r2,0(r2)
    1944:	1005d43a 	srai	r2,r2,16
    1948:	1007883a 	mov	r3,r2
    194c:	00bfffc4 	movi	r2,-1
    1950:	1884703a 	and	r2,r3,r2
    1954:	e0bfff45 	stb	r2,-3(fp)
    1958:	00800074 	movhi	r2,1
    195c:	10ac0d04 	addi	r2,r2,-20428
    1960:	10800a17 	ldw	r2,40(r2)
    1964:	10800304 	addi	r2,r2,12
    1968:	10800017 	ldw	r2,0(r2)
    196c:	1005d63a 	srai	r2,r2,24
    1970:	1007883a 	mov	r3,r2
    1974:	00bfffc4 	movi	r2,-1
    1978:	1884703a 	and	r2,r3,r2
    197c:	e0bfff05 	stb	r2,-4(fp)
    1980:	00800074 	movhi	r2,1
    1984:	10ac0d04 	addi	r2,r2,-20428
    1988:	10800e17 	ldw	r2,56(r2)
    198c:	10800058 	cmpnei	r2,r2,1
    1990:	1000041e 	bne	r2,zero,19a4 <alt_sys_init+0x33c>
    1994:	00800074 	movhi	r2,1
    1998:	10ac0d04 	addi	r2,r2,-20428
    199c:	10001115 	stw	zero,68(r2)
    19a0:	00000e06 	br	19dc <alt_sys_init+0x374>
    19a4:	00800074 	movhi	r2,1
    19a8:	10ac0d04 	addi	r2,r2,-20428
    19ac:	10800e17 	ldw	r2,56(r2)
    19b0:	10800098 	cmpnei	r2,r2,2
    19b4:	1000051e 	bne	r2,zero,19cc <alt_sys_init+0x364>
    19b8:	00c00074 	movhi	r3,1
    19bc:	18ec0d04 	addi	r3,r3,-20428
    19c0:	00800044 	movi	r2,1
    19c4:	18801115 	stw	r2,68(r3)
    19c8:	00000406 	br	19dc <alt_sys_init+0x374>
    19cc:	00c00074 	movhi	r3,1
    19d0:	18ec0d04 	addi	r3,r3,-20428
    19d4:	00800084 	movi	r2,2
    19d8:	18801115 	stw	r2,68(r3)
    19dc:	e0ffff43 	ldbu	r3,-3(fp)
    19e0:	00800804 	movi	r2,32
    19e4:	10c7c83a 	sub	r3,r2,r3
    19e8:	00bfffc4 	movi	r2,-1
    19ec:	10c6d83a 	srl	r3,r2,r3
    19f0:	00800074 	movhi	r2,1
    19f4:	10ac0d04 	addi	r2,r2,-20428
    19f8:	10c01215 	stw	r3,72(r2)
    19fc:	e0ffff43 	ldbu	r3,-3(fp)
    1a00:	00800074 	movhi	r2,1
    1a04:	10ac0d04 	addi	r2,r2,-20428
    1a08:	10801117 	ldw	r2,68(r2)
    1a0c:	1887883a 	add	r3,r3,r2
    1a10:	00800074 	movhi	r2,1
    1a14:	10ac0d04 	addi	r2,r2,-20428
    1a18:	10c01315 	stw	r3,76(r2)
    1a1c:	e0ffff03 	ldbu	r3,-4(fp)
    1a20:	00800804 	movi	r2,32
    1a24:	10c7c83a 	sub	r3,r2,r3
    1a28:	00bfffc4 	movi	r2,-1
    1a2c:	10c6d83a 	srl	r3,r2,r3
    1a30:	00800074 	movhi	r2,1
    1a34:	10ac0d04 	addi	r2,r2,-20428
    1a38:	10c01415 	stw	r3,80(r2)
    1a3c:	01000074 	movhi	r4,1
    1a40:	212c0d04 	addi	r4,r4,-20428
    1a44:	0001a680 	call	1a68 <alt_dev_reg>
    ALTERA_UP_SD_CARD_AVALON_INTERFACE_INIT ( SD_CARD, SD_Card);
    1a48:	01000074 	movhi	r4,1
    1a4c:	212c2204 	addi	r4,r4,-20344
    1a50:	0001a680 	call	1a68 <alt_dev_reg>
}
    1a54:	e037883a 	mov	sp,fp
    1a58:	dfc00117 	ldw	ra,4(sp)
    1a5c:	df000017 	ldw	fp,0(sp)
    1a60:	dec00204 	addi	sp,sp,8
    1a64:	f800283a 	ret

00001a68 <alt_dev_reg>:
 */

extern int alt_fs_reg  (alt_dev* dev); 

static ALT_INLINE int alt_dev_reg (alt_dev* dev)
{
    1a68:	defffd04 	addi	sp,sp,-12
    1a6c:	dfc00215 	stw	ra,8(sp)
    1a70:	df000115 	stw	fp,4(sp)
    1a74:	df000104 	addi	fp,sp,4
    1a78:	e13fff15 	stw	r4,-4(fp)
  extern alt_llist alt_dev_list;

  return alt_dev_llist_insert ((alt_dev_llist*) dev, &alt_dev_list);
    1a7c:	e13fff17 	ldw	r4,-4(fp)
    1a80:	01400074 	movhi	r5,1
    1a84:	296e9c04 	addi	r5,r5,-17808
    1a88:	00060dc0 	call	60dc <alt_dev_llist_insert>
}
    1a8c:	e037883a 	mov	sp,fp
    1a90:	dfc00117 	ldw	ra,4(sp)
    1a94:	df000017 	ldw	fp,0(sp)
    1a98:	dec00204 	addi	sp,sp,8
    1a9c:	f800283a 	ret

00001aa0 <altera_avalon_jtag_uart_read_fd>:
 *
 */

int 
altera_avalon_jtag_uart_read_fd(alt_fd* fd, char* buffer, int space)
{
    1aa0:	defffa04 	addi	sp,sp,-24
    1aa4:	dfc00515 	stw	ra,20(sp)
    1aa8:	df000415 	stw	fp,16(sp)
    1aac:	df000404 	addi	fp,sp,16
    1ab0:	e13ffd15 	stw	r4,-12(fp)
    1ab4:	e17ffe15 	stw	r5,-8(fp)
    1ab8:	e1bfff15 	stw	r6,-4(fp)
    altera_avalon_jtag_uart_dev* dev = (altera_avalon_jtag_uart_dev*) fd->dev; 
    1abc:	e0bffd17 	ldw	r2,-12(fp)
    1ac0:	10800017 	ldw	r2,0(r2)
    1ac4:	e0bffc15 	stw	r2,-16(fp)

    return altera_avalon_jtag_uart_read(&dev->state, buffer, space,
    1ac8:	e0bffc17 	ldw	r2,-16(fp)
    1acc:	11000a04 	addi	r4,r2,40
    1ad0:	e0bffd17 	ldw	r2,-12(fp)
    1ad4:	11c00217 	ldw	r7,8(r2)
    1ad8:	e17ffe17 	ldw	r5,-8(fp)
    1adc:	e1bfff17 	ldw	r6,-4(fp)
    1ae0:	00020e40 	call	20e4 <altera_avalon_jtag_uart_read>
      fd->fd_flags);
}
    1ae4:	e037883a 	mov	sp,fp
    1ae8:	dfc00117 	ldw	ra,4(sp)
    1aec:	df000017 	ldw	fp,0(sp)
    1af0:	dec00204 	addi	sp,sp,8
    1af4:	f800283a 	ret

00001af8 <altera_avalon_jtag_uart_write_fd>:

int 
altera_avalon_jtag_uart_write_fd(alt_fd* fd, const char* buffer, int space)
{
    1af8:	defffa04 	addi	sp,sp,-24
    1afc:	dfc00515 	stw	ra,20(sp)
    1b00:	df000415 	stw	fp,16(sp)
    1b04:	df000404 	addi	fp,sp,16
    1b08:	e13ffd15 	stw	r4,-12(fp)
    1b0c:	e17ffe15 	stw	r5,-8(fp)
    1b10:	e1bfff15 	stw	r6,-4(fp)
    altera_avalon_jtag_uart_dev* dev = (altera_avalon_jtag_uart_dev*) fd->dev; 
    1b14:	e0bffd17 	ldw	r2,-12(fp)
    1b18:	10800017 	ldw	r2,0(r2)
    1b1c:	e0bffc15 	stw	r2,-16(fp)

    return altera_avalon_jtag_uart_write(&dev->state, buffer, space,
    1b20:	e0bffc17 	ldw	r2,-16(fp)
    1b24:	11000a04 	addi	r4,r2,40
    1b28:	e0bffd17 	ldw	r2,-12(fp)
    1b2c:	11c00217 	ldw	r7,8(r2)
    1b30:	e17ffe17 	ldw	r5,-8(fp)
    1b34:	e1bfff17 	ldw	r6,-4(fp)
    1b38:	00023080 	call	2308 <altera_avalon_jtag_uart_write>
      fd->fd_flags);
}
    1b3c:	e037883a 	mov	sp,fp
    1b40:	dfc00117 	ldw	ra,4(sp)
    1b44:	df000017 	ldw	fp,0(sp)
    1b48:	dec00204 	addi	sp,sp,8
    1b4c:	f800283a 	ret

00001b50 <altera_avalon_jtag_uart_close_fd>:

#ifndef ALTERA_AVALON_JTAG_UART_SMALL

int 
altera_avalon_jtag_uart_close_fd(alt_fd* fd)
{
    1b50:	defffc04 	addi	sp,sp,-16
    1b54:	dfc00315 	stw	ra,12(sp)
    1b58:	df000215 	stw	fp,8(sp)
    1b5c:	df000204 	addi	fp,sp,8
    1b60:	e13fff15 	stw	r4,-4(fp)
    altera_avalon_jtag_uart_dev* dev = (altera_avalon_jtag_uart_dev*) fd->dev; 
    1b64:	e0bfff17 	ldw	r2,-4(fp)
    1b68:	10800017 	ldw	r2,0(r2)
    1b6c:	e0bffe15 	stw	r2,-8(fp)

    return altera_avalon_jtag_uart_close(&dev->state, fd->fd_flags);
    1b70:	e0bffe17 	ldw	r2,-8(fp)
    1b74:	11000a04 	addi	r4,r2,40
    1b78:	e0bfff17 	ldw	r2,-4(fp)
    1b7c:	11400217 	ldw	r5,8(r2)
    1b80:	0001f7c0 	call	1f7c <altera_avalon_jtag_uart_close>
}
    1b84:	e037883a 	mov	sp,fp
    1b88:	dfc00117 	ldw	ra,4(sp)
    1b8c:	df000017 	ldw	fp,0(sp)
    1b90:	dec00204 	addi	sp,sp,8
    1b94:	f800283a 	ret

00001b98 <altera_avalon_jtag_uart_ioctl_fd>:

int 
altera_avalon_jtag_uart_ioctl_fd(alt_fd* fd, int req, void* arg)
{
    1b98:	defffa04 	addi	sp,sp,-24
    1b9c:	dfc00515 	stw	ra,20(sp)
    1ba0:	df000415 	stw	fp,16(sp)
    1ba4:	df000404 	addi	fp,sp,16
    1ba8:	e13ffd15 	stw	r4,-12(fp)
    1bac:	e17ffe15 	stw	r5,-8(fp)
    1bb0:	e1bfff15 	stw	r6,-4(fp)
    altera_avalon_jtag_uart_dev* dev = (altera_avalon_jtag_uart_dev*) fd->dev;
    1bb4:	e0bffd17 	ldw	r2,-12(fp)
    1bb8:	10800017 	ldw	r2,0(r2)
    1bbc:	e0bffc15 	stw	r2,-16(fp)

    return altera_avalon_jtag_uart_ioctl(&dev->state, req, arg);
    1bc0:	e0bffc17 	ldw	r2,-16(fp)
    1bc4:	11000a04 	addi	r4,r2,40
    1bc8:	e17ffe17 	ldw	r5,-8(fp)
    1bcc:	e1bfff17 	ldw	r6,-4(fp)
    1bd0:	0001ff00 	call	1ff0 <altera_avalon_jtag_uart_ioctl>
}
    1bd4:	e037883a 	mov	sp,fp
    1bd8:	dfc00117 	ldw	ra,4(sp)
    1bdc:	df000017 	ldw	fp,0(sp)
    1be0:	dec00204 	addi	sp,sp,8
    1be4:	f800283a 	ret

00001be8 <altera_avalon_jtag_uart_init>:
 * Return 1 on sucessful IRQ register and 0 on failure.
 */

void altera_avalon_jtag_uart_init(altera_avalon_jtag_uart_state* sp, 
                                  int irq_controller_id, int irq)
{
    1be8:	defffb04 	addi	sp,sp,-20
    1bec:	dfc00415 	stw	ra,16(sp)
    1bf0:	df000315 	stw	fp,12(sp)
    1bf4:	df000304 	addi	fp,sp,12
    1bf8:	e13ffd15 	stw	r4,-12(fp)
    1bfc:	e17ffe15 	stw	r5,-8(fp)
    1c00:	e1bfff15 	stw	r6,-4(fp)
  ALT_FLAG_CREATE(&sp->events, 0);
  ALT_SEM_CREATE(&sp->read_lock, 1);
  ALT_SEM_CREATE(&sp->write_lock, 1);

  /* enable read interrupts at the device */
  sp->irq_enable = ALTERA_AVALON_JTAG_UART_CONTROL_RE_MSK;
    1c04:	e0fffd17 	ldw	r3,-12(fp)
    1c08:	00800044 	movi	r2,1
    1c0c:	18800815 	stw	r2,32(r3)

  IOWR_ALTERA_AVALON_JTAG_UART_CONTROL(sp->base, sp->irq_enable); 
    1c10:	e0bffd17 	ldw	r2,-12(fp)
    1c14:	10800017 	ldw	r2,0(r2)
    1c18:	11000104 	addi	r4,r2,4
    1c1c:	e0bffd17 	ldw	r2,-12(fp)
    1c20:	10800817 	ldw	r2,32(r2)
    1c24:	1007883a 	mov	r3,r2
    1c28:	2005883a 	mov	r2,r4
    1c2c:	10c00035 	stwio	r3,0(r2)
  /* register the interrupt handler */
#ifdef ALT_ENHANCED_INTERRUPT_API_PRESENT
  alt_ic_isr_register(irq_controller_id, irq, altera_avalon_jtag_uart_irq, 
                      sp, NULL);
#else
  alt_irq_register(irq, sp, altera_avalon_jtag_uart_irq);
    1c30:	e13fff17 	ldw	r4,-4(fp)
    1c34:	e17ffd17 	ldw	r5,-12(fp)
    1c38:	01800034 	movhi	r6,0
    1c3c:	31872804 	addi	r6,r6,7328
    1c40:	00010840 	call	1084 <alt_irq_register>
#endif  

  /* Register an alarm to go off every second to check for presence of host */
  sp->host_inactive = 0;
    1c44:	e0bffd17 	ldw	r2,-12(fp)
    1c48:	10000915 	stw	zero,36(r2)

  if (alt_alarm_start(&sp->alarm, alt_ticks_per_second(), 
    1c4c:	e0bffd17 	ldw	r2,-12(fp)
    1c50:	11000204 	addi	r4,r2,8
 * Obtain the system clock rate in ticks/s. 
 */

static ALT_INLINE alt_u32 ALT_ALWAYS_INLINE alt_ticks_per_second (void)
{
  return _alt_tick_rate;
    1c54:	00800074 	movhi	r2,1
    1c58:	10b63004 	addi	r2,r2,-10048
    1c5c:	10800017 	ldw	r2,0(r2)
    1c60:	100b883a 	mov	r5,r2
    1c64:	01800034 	movhi	r6,0
    1c68:	3187b304 	addi	r6,r6,7884
    1c6c:	e1fffd17 	ldw	r7,-12(fp)
    1c70:	0005de40 	call	5de4 <alt_alarm_start>
    1c74:	1004403a 	cmpge	r2,r2,zero
    1c78:	1000041e 	bne	r2,zero,1c8c <altera_avalon_jtag_uart_init+0xa4>
    &altera_avalon_jtag_uart_timeout, sp) < 0)
  {
    /* If we can't set the alarm then record "don't know if host present" 
     * and behave as though the host is present.
     */
    sp->timeout = INT_MAX;
    1c7c:	e0fffd17 	ldw	r3,-12(fp)
    1c80:	00a00034 	movhi	r2,32768
    1c84:	10bfffc4 	addi	r2,r2,-1
    1c88:	18800115 	stw	r2,4(r3)
  }

  /* ALT_LOG - see altera_hal/HAL/inc/sys/alt_log_printf.h */ 
  ALT_LOG_JTAG_UART_ALARM_REGISTER(sp, sp->base);
}
    1c8c:	e037883a 	mov	sp,fp
    1c90:	dfc00117 	ldw	ra,4(sp)
    1c94:	df000017 	ldw	fp,0(sp)
    1c98:	dec00204 	addi	sp,sp,8
    1c9c:	f800283a 	ret

00001ca0 <altera_avalon_jtag_uart_irq>:
#ifdef ALT_ENHANCED_INTERRUPT_API_PRESENT
static void altera_avalon_jtag_uart_irq(void* context)
#else
static void altera_avalon_jtag_uart_irq(void* context, alt_u32 id)
#endif
{
    1ca0:	defff704 	addi	sp,sp,-36
    1ca4:	df000815 	stw	fp,32(sp)
    1ca8:	df000804 	addi	fp,sp,32
    1cac:	e13ffe15 	stw	r4,-8(fp)
    1cb0:	e17fff15 	stw	r5,-4(fp)
  altera_avalon_jtag_uart_state* sp = (altera_avalon_jtag_uart_state*) context;
    1cb4:	e0bffe17 	ldw	r2,-8(fp)
    1cb8:	e0bffd15 	stw	r2,-12(fp)
  unsigned int base = sp->base;
    1cbc:	e0bffd17 	ldw	r2,-12(fp)
    1cc0:	10800017 	ldw	r2,0(r2)
    1cc4:	e0bffc15 	stw	r2,-16(fp)
    1cc8:	00000006 	br	1ccc <altera_avalon_jtag_uart_irq+0x2c>
  /* ALT_LOG - see altera_hal/HAL/inc/sys/alt_log_printf.h */ 
  ALT_LOG_JTAG_UART_ISR_FUNCTION(base, sp);

  for ( ; ; )
  {
    unsigned int control = IORD_ALTERA_AVALON_JTAG_UART_CONTROL(base);
    1ccc:	e0bffc17 	ldw	r2,-16(fp)
    1cd0:	10800104 	addi	r2,r2,4
    1cd4:	10800037 	ldwio	r2,0(r2)
    1cd8:	e0bffb15 	stw	r2,-20(fp)

    /* Return once nothing more to do */
    if ((control & (ALTERA_AVALON_JTAG_UART_CONTROL_RI_MSK | ALTERA_AVALON_JTAG_UART_CONTROL_WI_MSK)) == 0)
    1cdc:	e0bffb17 	ldw	r2,-20(fp)
    1ce0:	1080c00c 	andi	r2,r2,768
    1ce4:	1005003a 	cmpeq	r2,r2,zero
    1ce8:	1000741e 	bne	r2,zero,1ebc <altera_avalon_jtag_uart_irq+0x21c>
      break;

    if (control & ALTERA_AVALON_JTAG_UART_CONTROL_RI_MSK)
    1cec:	e0bffb17 	ldw	r2,-20(fp)
    1cf0:	1080400c 	andi	r2,r2,256
    1cf4:	1005003a 	cmpeq	r2,r2,zero
    1cf8:	1000351e 	bne	r2,zero,1dd0 <altera_avalon_jtag_uart_irq+0x130>
    {
      /* process a read irq.  Start by assuming that there is data in the
       * receive FIFO (otherwise why would we have been interrupted?)
       */
      unsigned int data = 1 << ALTERA_AVALON_JTAG_UART_DATA_RAVAIL_OFST;
    1cfc:	00800074 	movhi	r2,1
    1d00:	e0bffa15 	stw	r2,-24(fp)
      for ( ; ; )
      {
        /* Check whether there is space in the buffer.  If not then we must not
         * read any characters from the buffer as they will be lost.
         */
        unsigned int next = (sp->rx_in + 1) % ALTERA_AVALON_JTAG_UART_BUF_LEN;
    1d04:	e0bffd17 	ldw	r2,-12(fp)
    1d08:	10800a17 	ldw	r2,40(r2)
    1d0c:	10800044 	addi	r2,r2,1
    1d10:	1081ffcc 	andi	r2,r2,2047
    1d14:	e0bff915 	stw	r2,-28(fp)
        if (next == sp->rx_out)
    1d18:	e0bffd17 	ldw	r2,-12(fp)
    1d1c:	10c00b17 	ldw	r3,44(r2)
    1d20:	e0bff917 	ldw	r2,-28(fp)
    1d24:	18801626 	beq	r3,r2,1d80 <altera_avalon_jtag_uart_irq+0xe0>
          break;

        /* Try to remove a character from the FIFO and find out whether there
         * are any more characters remaining.
         */
        data = IORD_ALTERA_AVALON_JTAG_UART_DATA(base);
    1d28:	e0bffc17 	ldw	r2,-16(fp)
    1d2c:	10800037 	ldwio	r2,0(r2)
    1d30:	e0bffa15 	stw	r2,-24(fp)
        
        if ((data & ALTERA_AVALON_JTAG_UART_DATA_RVALID_MSK) == 0)
    1d34:	e0bffa17 	ldw	r2,-24(fp)
    1d38:	10a0000c 	andi	r2,r2,32768
    1d3c:	1005003a 	cmpeq	r2,r2,zero
    1d40:	10000f1e 	bne	r2,zero,1d80 <altera_avalon_jtag_uart_irq+0xe0>
          break;

        sp->rx_buf[sp->rx_in] = (data & ALTERA_AVALON_JTAG_UART_DATA_DATA_MSK) >> ALTERA_AVALON_JTAG_UART_DATA_DATA_OFST;
    1d44:	e0bffd17 	ldw	r2,-12(fp)
    1d48:	10c00a17 	ldw	r3,40(r2)
    1d4c:	e0bffa17 	ldw	r2,-24(fp)
    1d50:	1009883a 	mov	r4,r2
    1d54:	e0bffd17 	ldw	r2,-12(fp)
    1d58:	1885883a 	add	r2,r3,r2
    1d5c:	10800e04 	addi	r2,r2,56
    1d60:	11000005 	stb	r4,0(r2)
        sp->rx_in = (sp->rx_in + 1) % ALTERA_AVALON_JTAG_UART_BUF_LEN;
    1d64:	e0bffd17 	ldw	r2,-12(fp)
    1d68:	10800a17 	ldw	r2,40(r2)
    1d6c:	10800044 	addi	r2,r2,1
    1d70:	10c1ffcc 	andi	r3,r2,2047
    1d74:	e0bffd17 	ldw	r2,-12(fp)
    1d78:	10c00a15 	stw	r3,40(r2)

        /* Post an event to notify jtag_uart_read that a character has been read */
        ALT_FLAG_POST (sp->events, ALT_JTAG_UART_READ_RDY, OS_FLAG_SET);
      }
    1d7c:	003fe106 	br	1d04 <altera_avalon_jtag_uart_irq+0x64>

      if (data & ALTERA_AVALON_JTAG_UART_DATA_RAVAIL_MSK)
    1d80:	e0bffa17 	ldw	r2,-24(fp)
    1d84:	10bfffec 	andhi	r2,r2,65535
    1d88:	1005003a 	cmpeq	r2,r2,zero
    1d8c:	1000101e 	bne	r2,zero,1dd0 <altera_avalon_jtag_uart_irq+0x130>
      {
        /* If there is still data available here then the buffer is full 
         * so turn off receive interrupts until some space becomes available.
         */
        sp->irq_enable &= ~ALTERA_AVALON_JTAG_UART_CONTROL_RE_MSK;
    1d90:	e0bffd17 	ldw	r2,-12(fp)
    1d94:	10c00817 	ldw	r3,32(r2)
    1d98:	00bfff84 	movi	r2,-2
    1d9c:	1886703a 	and	r3,r3,r2
    1da0:	e0bffd17 	ldw	r2,-12(fp)
    1da4:	10c00815 	stw	r3,32(r2)
        IOWR_ALTERA_AVALON_JTAG_UART_CONTROL(base, sp->irq_enable);
    1da8:	e0bffc17 	ldw	r2,-16(fp)
    1dac:	11000104 	addi	r4,r2,4
    1db0:	e0bffd17 	ldw	r2,-12(fp)
    1db4:	10800817 	ldw	r2,32(r2)
    1db8:	1007883a 	mov	r3,r2
    1dbc:	2005883a 	mov	r2,r4
    1dc0:	10c00035 	stwio	r3,0(r2)
        
        /* Dummy read to ensure IRQ is cleared prior to ISR completion */
        IORD_ALTERA_AVALON_JTAG_UART_CONTROL(base);
    1dc4:	e0bffc17 	ldw	r2,-16(fp)
    1dc8:	10800104 	addi	r2,r2,4
    1dcc:	10800037 	ldwio	r2,0(r2)
      }
    }

    if (control & ALTERA_AVALON_JTAG_UART_CONTROL_WI_MSK)
    1dd0:	e0bffb17 	ldw	r2,-20(fp)
    1dd4:	1080800c 	andi	r2,r2,512
    1dd8:	1005003a 	cmpeq	r2,r2,zero
    1ddc:	103fbb1e 	bne	r2,zero,1ccc <altera_avalon_jtag_uart_irq+0x2c>
    {
      /* process a write irq */
      unsigned int space = (control & ALTERA_AVALON_JTAG_UART_CONTROL_WSPACE_MSK) >> ALTERA_AVALON_JTAG_UART_CONTROL_WSPACE_OFST;
    1de0:	e0bffb17 	ldw	r2,-20(fp)
    1de4:	10bfffec 	andhi	r2,r2,65535
    1de8:	1004d43a 	srli	r2,r2,16
    1dec:	e0bff815 	stw	r2,-32(fp)

      while (space > 0 && sp->tx_out != sp->tx_in)
    1df0:	00001506 	br	1e48 <altera_avalon_jtag_uart_irq+0x1a8>
      {
        IOWR_ALTERA_AVALON_JTAG_UART_DATA(base, sp->tx_buf[sp->tx_out]);
    1df4:	e13ffc17 	ldw	r4,-16(fp)
    1df8:	e0bffd17 	ldw	r2,-12(fp)
    1dfc:	10c00d17 	ldw	r3,52(r2)
    1e00:	e0bffd17 	ldw	r2,-12(fp)
    1e04:	1885883a 	add	r2,r3,r2
    1e08:	10820e04 	addi	r2,r2,2104
    1e0c:	10800003 	ldbu	r2,0(r2)
    1e10:	10c03fcc 	andi	r3,r2,255
    1e14:	18c0201c 	xori	r3,r3,128
    1e18:	18ffe004 	addi	r3,r3,-128
    1e1c:	2005883a 	mov	r2,r4
    1e20:	10c00035 	stwio	r3,0(r2)

        sp->tx_out = (sp->tx_out + 1) % ALTERA_AVALON_JTAG_UART_BUF_LEN;
    1e24:	e0bffd17 	ldw	r2,-12(fp)
    1e28:	10800d17 	ldw	r2,52(r2)
    1e2c:	10800044 	addi	r2,r2,1
    1e30:	10c1ffcc 	andi	r3,r2,2047
    1e34:	e0bffd17 	ldw	r2,-12(fp)
    1e38:	10c00d15 	stw	r3,52(r2)

        /* Post an event to notify jtag_uart_write that a character has been written */
        ALT_FLAG_POST (sp->events, ALT_JTAG_UART_WRITE_RDY, OS_FLAG_SET);

        space--;
    1e3c:	e0bff817 	ldw	r2,-32(fp)
    1e40:	10bfffc4 	addi	r2,r2,-1
    1e44:	e0bff815 	stw	r2,-32(fp)
    if (control & ALTERA_AVALON_JTAG_UART_CONTROL_WI_MSK)
    {
      /* process a write irq */
      unsigned int space = (control & ALTERA_AVALON_JTAG_UART_CONTROL_WSPACE_MSK) >> ALTERA_AVALON_JTAG_UART_CONTROL_WSPACE_OFST;

      while (space > 0 && sp->tx_out != sp->tx_in)
    1e48:	e0bff817 	ldw	r2,-32(fp)
    1e4c:	1005003a 	cmpeq	r2,r2,zero
    1e50:	1000051e 	bne	r2,zero,1e68 <altera_avalon_jtag_uart_irq+0x1c8>
    1e54:	e0bffd17 	ldw	r2,-12(fp)
    1e58:	10c00d17 	ldw	r3,52(r2)
    1e5c:	e0bffd17 	ldw	r2,-12(fp)
    1e60:	10800c17 	ldw	r2,48(r2)
    1e64:	18bfe31e 	bne	r3,r2,1df4 <altera_avalon_jtag_uart_irq+0x154>
        ALT_FLAG_POST (sp->events, ALT_JTAG_UART_WRITE_RDY, OS_FLAG_SET);

        space--;
      }

      if (space > 0)
    1e68:	e0bff817 	ldw	r2,-32(fp)
    1e6c:	1005003a 	cmpeq	r2,r2,zero
    1e70:	103f961e 	bne	r2,zero,1ccc <altera_avalon_jtag_uart_irq+0x2c>
      {
        /* If we don't have any more data available then turn off the TX interrupt */
        sp->irq_enable &= ~ALTERA_AVALON_JTAG_UART_CONTROL_WE_MSK;
    1e74:	e0bffd17 	ldw	r2,-12(fp)
    1e78:	10c00817 	ldw	r3,32(r2)
    1e7c:	00bfff44 	movi	r2,-3
    1e80:	1886703a 	and	r3,r3,r2
    1e84:	e0bffd17 	ldw	r2,-12(fp)
    1e88:	10c00815 	stw	r3,32(r2)
        IOWR_ALTERA_AVALON_JTAG_UART_CONTROL(sp->base, sp->irq_enable);
    1e8c:	e0bffd17 	ldw	r2,-12(fp)
    1e90:	10800017 	ldw	r2,0(r2)
    1e94:	11000104 	addi	r4,r2,4
    1e98:	e0bffd17 	ldw	r2,-12(fp)
    1e9c:	10800817 	ldw	r2,32(r2)
    1ea0:	1007883a 	mov	r3,r2
    1ea4:	2005883a 	mov	r2,r4
    1ea8:	10c00035 	stwio	r3,0(r2)
        
        /* Dummy read to ensure IRQ is cleared prior to ISR completion */
        IORD_ALTERA_AVALON_JTAG_UART_CONTROL(base);
    1eac:	e0bffc17 	ldw	r2,-16(fp)
    1eb0:	10800104 	addi	r2,r2,4
    1eb4:	10800037 	ldwio	r2,0(r2)
      }
    }
  }
    1eb8:	003f8406 	br	1ccc <altera_avalon_jtag_uart_irq+0x2c>
}
    1ebc:	e037883a 	mov	sp,fp
    1ec0:	df000017 	ldw	fp,0(sp)
    1ec4:	dec00104 	addi	sp,sp,4
    1ec8:	f800283a 	ret

00001ecc <altera_avalon_jtag_uart_timeout>:
 * Timeout routine is called every second
 */

static alt_u32 
altera_avalon_jtag_uart_timeout(void* context) 
{
    1ecc:	defffc04 	addi	sp,sp,-16
    1ed0:	df000315 	stw	fp,12(sp)
    1ed4:	df000304 	addi	fp,sp,12
    1ed8:	e13fff15 	stw	r4,-4(fp)
  altera_avalon_jtag_uart_state* sp = (altera_avalon_jtag_uart_state *) context;
    1edc:	e0bfff17 	ldw	r2,-4(fp)
    1ee0:	e0bffe15 	stw	r2,-8(fp)

  unsigned int control = IORD_ALTERA_AVALON_JTAG_UART_CONTROL(sp->base);
    1ee4:	e0bffe17 	ldw	r2,-8(fp)
    1ee8:	10800017 	ldw	r2,0(r2)
    1eec:	10800104 	addi	r2,r2,4
    1ef0:	10800037 	ldwio	r2,0(r2)
    1ef4:	e0bffd15 	stw	r2,-12(fp)

  if (control & ALTERA_AVALON_JTAG_UART_CONTROL_AC_MSK)
    1ef8:	e0bffd17 	ldw	r2,-12(fp)
    1efc:	1081000c 	andi	r2,r2,1024
    1f00:	1005003a 	cmpeq	r2,r2,zero
    1f04:	10000c1e 	bne	r2,zero,1f38 <altera_avalon_jtag_uart_timeout+0x6c>
  {
    IOWR_ALTERA_AVALON_JTAG_UART_CONTROL(sp->base, sp->irq_enable | ALTERA_AVALON_JTAG_UART_CONTROL_AC_MSK);
    1f08:	e0bffe17 	ldw	r2,-8(fp)
    1f0c:	10800017 	ldw	r2,0(r2)
    1f10:	11000104 	addi	r4,r2,4
    1f14:	e0bffe17 	ldw	r2,-8(fp)
    1f18:	10800817 	ldw	r2,32(r2)
    1f1c:	10810014 	ori	r2,r2,1024
    1f20:	1007883a 	mov	r3,r2
    1f24:	2005883a 	mov	r2,r4
    1f28:	10c00035 	stwio	r3,0(r2)
    sp->host_inactive = 0;
    1f2c:	e0bffe17 	ldw	r2,-8(fp)
    1f30:	10000915 	stw	zero,36(r2)
    1f34:	00000a06 	br	1f60 <altera_avalon_jtag_uart_timeout+0x94>
  }
  else if (sp->host_inactive < INT_MAX - 2) {
    1f38:	e0bffe17 	ldw	r2,-8(fp)
    1f3c:	10c00917 	ldw	r3,36(r2)
    1f40:	00a00034 	movhi	r2,32768
    1f44:	10bfff04 	addi	r2,r2,-4
    1f48:	10c00536 	bltu	r2,r3,1f60 <altera_avalon_jtag_uart_timeout+0x94>
    sp->host_inactive++;
    1f4c:	e0bffe17 	ldw	r2,-8(fp)
    1f50:	10800917 	ldw	r2,36(r2)
    1f54:	10c00044 	addi	r3,r2,1
    1f58:	e0bffe17 	ldw	r2,-8(fp)
    1f5c:	10c00915 	stw	r3,36(r2)
    1f60:	00800074 	movhi	r2,1
    1f64:	10b63004 	addi	r2,r2,-10048
    1f68:	10800017 	ldw	r2,0(r2)
      ALT_FLAG_POST (sp->events, ALT_JTAG_UART_TIMEOUT, OS_FLAG_SET);
    }
  }

  return alt_ticks_per_second();
}
    1f6c:	e037883a 	mov	sp,fp
    1f70:	df000017 	ldw	fp,0(sp)
    1f74:	dec00104 	addi	sp,sp,4
    1f78:	f800283a 	ret

00001f7c <altera_avalon_jtag_uart_close>:
 * The close routine is not implemented for the small driver; instead it will
 * map to null. This is because the small driver simply waits while characters
 * are transmitted; there is no interrupt-serviced buffer to empty 
 */
int altera_avalon_jtag_uart_close(altera_avalon_jtag_uart_state* sp, int flags)
{
    1f7c:	defffc04 	addi	sp,sp,-16
    1f80:	df000315 	stw	fp,12(sp)
    1f84:	df000304 	addi	fp,sp,12
    1f88:	e13ffd15 	stw	r4,-12(fp)
    1f8c:	e17ffe15 	stw	r5,-8(fp)
  /* 
   * Wait for all transmit data to be emptied by the JTAG UART ISR, or
   * for a host-inactivity timeout, in which case transmit data will be lost
   */
  while ( (sp->tx_out != sp->tx_in) && (sp->host_inactive < sp->timeout) ) {
    1f90:	00000706 	br	1fb0 <altera_avalon_jtag_uart_close+0x34>
    if (flags & O_NONBLOCK) {
    1f94:	e0bffe17 	ldw	r2,-8(fp)
    1f98:	1090000c 	andi	r2,r2,16384
    1f9c:	1005003a 	cmpeq	r2,r2,zero
    1fa0:	1000031e 	bne	r2,zero,1fb0 <altera_avalon_jtag_uart_close+0x34>
      return -EWOULDBLOCK; 
    1fa4:	00bffd44 	movi	r2,-11
    1fa8:	e0bfff15 	stw	r2,-4(fp)
    1fac:	00000b06 	br	1fdc <altera_avalon_jtag_uart_close+0x60>
{
  /* 
   * Wait for all transmit data to be emptied by the JTAG UART ISR, or
   * for a host-inactivity timeout, in which case transmit data will be lost
   */
  while ( (sp->tx_out != sp->tx_in) && (sp->host_inactive < sp->timeout) ) {
    1fb0:	e0bffd17 	ldw	r2,-12(fp)
    1fb4:	10c00d17 	ldw	r3,52(r2)
    1fb8:	e0bffd17 	ldw	r2,-12(fp)
    1fbc:	10800c17 	ldw	r2,48(r2)
    1fc0:	18800526 	beq	r3,r2,1fd8 <altera_avalon_jtag_uart_close+0x5c>
    1fc4:	e0bffd17 	ldw	r2,-12(fp)
    1fc8:	10c00917 	ldw	r3,36(r2)
    1fcc:	e0bffd17 	ldw	r2,-12(fp)
    1fd0:	10800117 	ldw	r2,4(r2)
    1fd4:	18bfef36 	bltu	r3,r2,1f94 <altera_avalon_jtag_uart_close+0x18>
    if (flags & O_NONBLOCK) {
      return -EWOULDBLOCK; 
    }
  }

  return 0;
    1fd8:	e03fff15 	stw	zero,-4(fp)
    1fdc:	e0bfff17 	ldw	r2,-4(fp)
}
    1fe0:	e037883a 	mov	sp,fp
    1fe4:	df000017 	ldw	fp,0(sp)
    1fe8:	dec00104 	addi	sp,sp,4
    1fec:	f800283a 	ret

00001ff0 <altera_avalon_jtag_uart_ioctl>:
/* ----------------------------------------------------------- */

int 
altera_avalon_jtag_uart_ioctl(altera_avalon_jtag_uart_state* sp, int req,
  void* arg)
{
    1ff0:	defff804 	addi	sp,sp,-32
    1ff4:	df000715 	stw	fp,28(sp)
    1ff8:	df000704 	addi	fp,sp,28
    1ffc:	e13ffb15 	stw	r4,-20(fp)
    2000:	e17ffc15 	stw	r5,-16(fp)
    2004:	e1bffd15 	stw	r6,-12(fp)
  int rc = -ENOTTY;
    2008:	00bff9c4 	movi	r2,-25
    200c:	e0bffa15 	stw	r2,-24(fp)

  switch (req)
    2010:	e0bffc17 	ldw	r2,-16(fp)
    2014:	e0bfff15 	stw	r2,-4(fp)
    2018:	e0ffff17 	ldw	r3,-4(fp)
    201c:	189a8060 	cmpeqi	r2,r3,27137
    2020:	1000041e 	bne	r2,zero,2034 <altera_avalon_jtag_uart_ioctl+0x44>
    2024:	e0ffff17 	ldw	r3,-4(fp)
    2028:	189a80a0 	cmpeqi	r2,r3,27138
    202c:	10001b1e 	bne	r2,zero,209c <altera_avalon_jtag_uart_ioctl+0xac>
    2030:	00002706 	br	20d0 <altera_avalon_jtag_uart_ioctl+0xe0>
  {
  case TIOCSTIMEOUT:
    /* Set the time to wait until assuming host is not connected */
    if (sp->timeout != INT_MAX)
    2034:	e0bffb17 	ldw	r2,-20(fp)
    2038:	10c00117 	ldw	r3,4(r2)
    203c:	00a00034 	movhi	r2,32768
    2040:	10bfffc4 	addi	r2,r2,-1
    2044:	18802226 	beq	r3,r2,20d0 <altera_avalon_jtag_uart_ioctl+0xe0>
    {
      int timeout = *((int *)arg);
    2048:	e0bffd17 	ldw	r2,-12(fp)
    204c:	10800017 	ldw	r2,0(r2)
    2050:	e0bff915 	stw	r2,-28(fp)
      sp->timeout = (timeout >= 2 && timeout < INT_MAX) ? timeout : INT_MAX - 1;
    2054:	e0bff917 	ldw	r2,-28(fp)
    2058:	10800090 	cmplti	r2,r2,2
    205c:	1000071e 	bne	r2,zero,207c <altera_avalon_jtag_uart_ioctl+0x8c>
    2060:	e0fff917 	ldw	r3,-28(fp)
    2064:	00a00034 	movhi	r2,32768
    2068:	10bfffc4 	addi	r2,r2,-1
    206c:	18800326 	beq	r3,r2,207c <altera_avalon_jtag_uart_ioctl+0x8c>
    2070:	e0bff917 	ldw	r2,-28(fp)
    2074:	e0bffe15 	stw	r2,-8(fp)
    2078:	00000306 	br	2088 <altera_avalon_jtag_uart_ioctl+0x98>
    207c:	00e00034 	movhi	r3,32768
    2080:	18ffff84 	addi	r3,r3,-2
    2084:	e0fffe15 	stw	r3,-8(fp)
    2088:	e0bffb17 	ldw	r2,-20(fp)
    208c:	e0fffe17 	ldw	r3,-8(fp)
    2090:	10c00115 	stw	r3,4(r2)
      rc = 0;
    2094:	e03ffa15 	stw	zero,-24(fp)
    }
    break;
    2098:	00000d06 	br	20d0 <altera_avalon_jtag_uart_ioctl+0xe0>

  case TIOCGCONNECTED:
    /* Find out whether host is connected */
    if (sp->timeout != INT_MAX)
    209c:	e0bffb17 	ldw	r2,-20(fp)
    20a0:	10c00117 	ldw	r3,4(r2)
    20a4:	00a00034 	movhi	r2,32768
    20a8:	10bfffc4 	addi	r2,r2,-1
    20ac:	18800826 	beq	r3,r2,20d0 <altera_avalon_jtag_uart_ioctl+0xe0>
    {
      *((int *)arg) = (sp->host_inactive < sp->timeout) ? 1 : 0;
    20b0:	e13ffd17 	ldw	r4,-12(fp)
    20b4:	e0bffb17 	ldw	r2,-20(fp)
    20b8:	10c00917 	ldw	r3,36(r2)
    20bc:	e0bffb17 	ldw	r2,-20(fp)
    20c0:	10800117 	ldw	r2,4(r2)
    20c4:	1885803a 	cmpltu	r2,r3,r2
    20c8:	20800015 	stw	r2,0(r4)
      rc = 0;
    20cc:	e03ffa15 	stw	zero,-24(fp)

  default:
    break;
  }

  return rc;
    20d0:	e0bffa17 	ldw	r2,-24(fp)
}
    20d4:	e037883a 	mov	sp,fp
    20d8:	df000017 	ldw	fp,0(sp)
    20dc:	dec00104 	addi	sp,sp,4
    20e0:	f800283a 	ret

000020e4 <altera_avalon_jtag_uart_read>:
/* ----------------------------------------------------------- */

int 
altera_avalon_jtag_uart_read(altera_avalon_jtag_uart_state* sp, 
  char * buffer, int space, int flags)
{
    20e4:	defff204 	addi	sp,sp,-56
    20e8:	dfc00d15 	stw	ra,52(sp)
    20ec:	df000c15 	stw	fp,48(sp)
    20f0:	df000c04 	addi	fp,sp,48
    20f4:	e13ffb15 	stw	r4,-20(fp)
    20f8:	e17ffc15 	stw	r5,-16(fp)
    20fc:	e1bffd15 	stw	r6,-12(fp)
    2100:	e1fffe15 	stw	r7,-8(fp)
  char * ptr = buffer;
    2104:	e0bffc17 	ldw	r2,-16(fp)
    2108:	e0bffa15 	stw	r2,-24(fp)
   * When running in a multi threaded environment, obtain the "read_lock"
   * semaphore. This ensures that reading from the device is thread-safe.
   */
  ALT_SEM_PEND (sp->read_lock, 0);

  while (space > 0)
    210c:	00004806 	br	2230 <altera_avalon_jtag_uart_read+0x14c>
    unsigned int in, out;

    /* Read as much data as possible */
    do
    {
      in  = sp->rx_in;
    2110:	e0bffb17 	ldw	r2,-20(fp)
    2114:	10800a17 	ldw	r2,40(r2)
    2118:	e0bff715 	stw	r2,-36(fp)
      out = sp->rx_out;
    211c:	e0bffb17 	ldw	r2,-20(fp)
    2120:	10800b17 	ldw	r2,44(r2)
    2124:	e0bff615 	stw	r2,-40(fp)

      if (in >= out)
    2128:	e0fff717 	ldw	r3,-36(fp)
    212c:	e0bff617 	ldw	r2,-40(fp)
    2130:	18800536 	bltu	r3,r2,2148 <altera_avalon_jtag_uart_read+0x64>
        n = in - out;
    2134:	e0bff717 	ldw	r2,-36(fp)
    2138:	e0fff617 	ldw	r3,-40(fp)
    213c:	10c5c83a 	sub	r2,r2,r3
    2140:	e0bff815 	stw	r2,-32(fp)
    2144:	00000406 	br	2158 <altera_avalon_jtag_uart_read+0x74>
      else
        n = ALTERA_AVALON_JTAG_UART_BUF_LEN - out;
    2148:	00820004 	movi	r2,2048
    214c:	e0fff617 	ldw	r3,-40(fp)
    2150:	10c5c83a 	sub	r2,r2,r3
    2154:	e0bff815 	stw	r2,-32(fp)

      if (n == 0)
    2158:	e0bff817 	ldw	r2,-32(fp)
    215c:	1005003a 	cmpeq	r2,r2,zero
    2160:	10001f1e 	bne	r2,zero,21e0 <altera_avalon_jtag_uart_read+0xfc>
        break; /* No more data available */

      if (n > space)
    2164:	e0fffd17 	ldw	r3,-12(fp)
    2168:	e0bff817 	ldw	r2,-32(fp)
    216c:	1880022e 	bgeu	r3,r2,2178 <altera_avalon_jtag_uart_read+0x94>
        n = space;
    2170:	e0bffd17 	ldw	r2,-12(fp)
    2174:	e0bff815 	stw	r2,-32(fp)

      memcpy(ptr, sp->rx_buf + out, n);
    2178:	e0bffb17 	ldw	r2,-20(fp)
    217c:	10c00e04 	addi	r3,r2,56
    2180:	e0bff617 	ldw	r2,-40(fp)
    2184:	1887883a 	add	r3,r3,r2
    2188:	e0bffa17 	ldw	r2,-24(fp)
    218c:	1009883a 	mov	r4,r2
    2190:	180b883a 	mov	r5,r3
    2194:	e1bff817 	ldw	r6,-32(fp)
    2198:	0000f4c0 	call	f4c <memcpy>
      ptr   += n;
    219c:	e0fff817 	ldw	r3,-32(fp)
    21a0:	e0bffa17 	ldw	r2,-24(fp)
    21a4:	10c5883a 	add	r2,r2,r3
    21a8:	e0bffa15 	stw	r2,-24(fp)
      space -= n;
    21ac:	e0fffd17 	ldw	r3,-12(fp)
    21b0:	e0bff817 	ldw	r2,-32(fp)
    21b4:	1885c83a 	sub	r2,r3,r2
    21b8:	e0bffd15 	stw	r2,-12(fp)

      sp->rx_out = (out + n) % ALTERA_AVALON_JTAG_UART_BUF_LEN;
    21bc:	e0fff617 	ldw	r3,-40(fp)
    21c0:	e0bff817 	ldw	r2,-32(fp)
    21c4:	1885883a 	add	r2,r3,r2
    21c8:	10c1ffcc 	andi	r3,r2,2047
    21cc:	e0bffb17 	ldw	r2,-20(fp)
    21d0:	10c00b15 	stw	r3,44(r2)
    }
    while (space > 0);
    21d4:	e0bffd17 	ldw	r2,-12(fp)
    21d8:	10800048 	cmpgei	r2,r2,1
    21dc:	103fcc1e 	bne	r2,zero,2110 <altera_avalon_jtag_uart_read+0x2c>

    /* If we read any data then return it */
    if (ptr != buffer)
    21e0:	e0fffa17 	ldw	r3,-24(fp)
    21e4:	e0bffc17 	ldw	r2,-16(fp)
    21e8:	1880141e 	bne	r3,r2,223c <altera_avalon_jtag_uart_read+0x158>
      break;

    /* If in non-blocking mode then return error */
    if (flags & O_NONBLOCK)
    21ec:	e0bffe17 	ldw	r2,-8(fp)
    21f0:	1090000c 	andi	r2,r2,16384
    21f4:	1004c03a 	cmpne	r2,r2,zero
    21f8:	1000101e 	bne	r2,zero,223c <altera_avalon_jtag_uart_read+0x158>
      while (in == sp->rx_in && sp->host_inactive < sp->timeout)
        ;
    }
#else
    /* No OS: Always spin */
    while (in == sp->rx_in && sp->host_inactive < sp->timeout)
    21fc:	e0bffb17 	ldw	r2,-20(fp)
    2200:	10c00a17 	ldw	r3,40(r2)
    2204:	e0bff717 	ldw	r2,-36(fp)
    2208:	1880051e 	bne	r3,r2,2220 <altera_avalon_jtag_uart_read+0x13c>
    220c:	e0bffb17 	ldw	r2,-20(fp)
    2210:	10c00917 	ldw	r3,36(r2)
    2214:	e0bffb17 	ldw	r2,-20(fp)
    2218:	10800117 	ldw	r2,4(r2)
    221c:	18bff736 	bltu	r3,r2,21fc <altera_avalon_jtag_uart_read+0x118>
      ;
#endif /* __ucosii__ */

    if (in == sp->rx_in)
    2220:	e0bffb17 	ldw	r2,-20(fp)
    2224:	10c00a17 	ldw	r3,40(r2)
    2228:	e0bff717 	ldw	r2,-36(fp)
    222c:	18800326 	beq	r3,r2,223c <altera_avalon_jtag_uart_read+0x158>
   * When running in a multi threaded environment, obtain the "read_lock"
   * semaphore. This ensures that reading from the device is thread-safe.
   */
  ALT_SEM_PEND (sp->read_lock, 0);

  while (space > 0)
    2230:	e0bffd17 	ldw	r2,-12(fp)
    2234:	10800048 	cmpgei	r2,r2,1
    2238:	103fb51e 	bne	r2,zero,2110 <altera_avalon_jtag_uart_read+0x2c>
   * semaphore so that other threads can access the buffer.
   */

  ALT_SEM_POST (sp->read_lock);

  if (ptr != buffer)
    223c:	e0fffa17 	ldw	r3,-24(fp)
    2240:	e0bffc17 	ldw	r2,-16(fp)
    2244:	18801926 	beq	r3,r2,22ac <altera_avalon_jtag_uart_read+0x1c8>
static ALT_INLINE alt_irq_context ALT_ALWAYS_INLINE 
       alt_irq_disable_all (void)
{
  alt_irq_context context;

  NIOS2_READ_STATUS (context);
    2248:	0005303a 	rdctl	r2,status
    224c:	e0bff515 	stw	r2,-44(fp)

  NIOS2_WRITE_STATUS (context & ~NIOS2_STATUS_PIE_MSK);
    2250:	e0fff517 	ldw	r3,-44(fp)
    2254:	00bfff84 	movi	r2,-2
    2258:	1884703a 	and	r2,r3,r2
    225c:	1001703a 	wrctl	status,r2
  
  return context;
    2260:	e0bff517 	ldw	r2,-44(fp)
  {
    /* If we read any data then there is space in the buffer so enable interrupts */
    context = alt_irq_disable_all();
    2264:	e0bff915 	stw	r2,-28(fp)
    sp->irq_enable |= ALTERA_AVALON_JTAG_UART_CONTROL_RE_MSK;
    2268:	e0bffb17 	ldw	r2,-20(fp)
    226c:	10800817 	ldw	r2,32(r2)
    2270:	10c00054 	ori	r3,r2,1
    2274:	e0bffb17 	ldw	r2,-20(fp)
    2278:	10c00815 	stw	r3,32(r2)
    IOWR_ALTERA_AVALON_JTAG_UART_CONTROL(sp->base, sp->irq_enable);
    227c:	e0bffb17 	ldw	r2,-20(fp)
    2280:	10800017 	ldw	r2,0(r2)
    2284:	11000104 	addi	r4,r2,4
    2288:	e0bffb17 	ldw	r2,-20(fp)
    228c:	10800817 	ldw	r2,32(r2)
    2290:	1007883a 	mov	r3,r2
    2294:	2005883a 	mov	r2,r4
    2298:	10c00035 	stwio	r3,0(r2)
    229c:	e0bff917 	ldw	r2,-28(fp)
    22a0:	e0bff415 	stw	r2,-48(fp)
  status &= ~NIOS2_STATUS_PIE_MSK;
  status |= (context & NIOS2_STATUS_PIE_MSK);
  
  NIOS2_WRITE_STATUS (status);
#else
  NIOS2_WRITE_STATUS (context);
    22a4:	e0bff417 	ldw	r2,-48(fp)
    22a8:	1001703a 	wrctl	status,r2
    alt_irq_enable_all(context);
  }

  if (ptr != buffer)
    22ac:	e0fffa17 	ldw	r3,-24(fp)
    22b0:	e0bffc17 	ldw	r2,-16(fp)
    22b4:	18800526 	beq	r3,r2,22cc <altera_avalon_jtag_uart_read+0x1e8>
    return ptr - buffer;
    22b8:	e0fffa17 	ldw	r3,-24(fp)
    22bc:	e0bffc17 	ldw	r2,-16(fp)
    22c0:	1887c83a 	sub	r3,r3,r2
    22c4:	e0ffff15 	stw	r3,-4(fp)
    22c8:	00000906 	br	22f0 <altera_avalon_jtag_uart_read+0x20c>
  else if (flags & O_NONBLOCK)
    22cc:	e0bffe17 	ldw	r2,-8(fp)
    22d0:	1090000c 	andi	r2,r2,16384
    22d4:	1005003a 	cmpeq	r2,r2,zero
    22d8:	1000031e 	bne	r2,zero,22e8 <altera_avalon_jtag_uart_read+0x204>
    return -EWOULDBLOCK;
    22dc:	00bffd44 	movi	r2,-11
    22e0:	e0bfff15 	stw	r2,-4(fp)
    22e4:	00000206 	br	22f0 <altera_avalon_jtag_uart_read+0x20c>
  else
    return -EIO;
    22e8:	00bffec4 	movi	r2,-5
    22ec:	e0bfff15 	stw	r2,-4(fp)
    22f0:	e0bfff17 	ldw	r2,-4(fp)
}
    22f4:	e037883a 	mov	sp,fp
    22f8:	dfc00117 	ldw	ra,4(sp)
    22fc:	df000017 	ldw	fp,0(sp)
    2300:	dec00204 	addi	sp,sp,8
    2304:	f800283a 	ret

00002308 <altera_avalon_jtag_uart_write>:
/* ----------------------------------------------------------- */

int 
altera_avalon_jtag_uart_write(altera_avalon_jtag_uart_state* sp, 
  const char * ptr, int count, int flags)
{
    2308:	defff204 	addi	sp,sp,-56
    230c:	dfc00d15 	stw	ra,52(sp)
    2310:	df000c15 	stw	fp,48(sp)
    2314:	df000c04 	addi	fp,sp,48
    2318:	e13ffb15 	stw	r4,-20(fp)
    231c:	e17ffc15 	stw	r5,-16(fp)
    2320:	e1bffd15 	stw	r6,-12(fp)
    2324:	e1fffe15 	stw	r7,-8(fp)
  /* Remove warning at optimisation level 03 by seting out to 0 */
  unsigned int in, out=0;
    2328:	e03ff915 	stw	zero,-28(fp)
  unsigned int n;
  alt_irq_context context;

  const char * start = ptr;
    232c:	e0bffc17 	ldw	r2,-16(fp)
    2330:	e0bff615 	stw	r2,-40(fp)
  ALT_SEM_PEND (sp->write_lock, 0);

  do
  {
    /* Copy as much as we can into the transmit buffer */
    while (count > 0)
    2334:	00003a06 	br	2420 <altera_avalon_jtag_uart_write+0x118>
    {
      /* We need a stable value of the out pointer to calculate the space available */
      in  = sp->tx_in;
    2338:	e0bffb17 	ldw	r2,-20(fp)
    233c:	10800c17 	ldw	r2,48(r2)
    2340:	e0bffa15 	stw	r2,-24(fp)
      out = sp->tx_out;
    2344:	e0bffb17 	ldw	r2,-20(fp)
    2348:	10800d17 	ldw	r2,52(r2)
    234c:	e0bff915 	stw	r2,-28(fp)

      if (in < out)
    2350:	e0fffa17 	ldw	r3,-24(fp)
    2354:	e0bff917 	ldw	r2,-28(fp)
    2358:	1880062e 	bgeu	r3,r2,2374 <altera_avalon_jtag_uart_write+0x6c>
        n = out - 1 - in;
    235c:	e0fff917 	ldw	r3,-28(fp)
    2360:	e0bffa17 	ldw	r2,-24(fp)
    2364:	1885c83a 	sub	r2,r3,r2
    2368:	10bfffc4 	addi	r2,r2,-1
    236c:	e0bff815 	stw	r2,-32(fp)
    2370:	00000c06 	br	23a4 <altera_avalon_jtag_uart_write+0x9c>
      else if (out > 0)
    2374:	e0bff917 	ldw	r2,-28(fp)
    2378:	1005003a 	cmpeq	r2,r2,zero
    237c:	1000051e 	bne	r2,zero,2394 <altera_avalon_jtag_uart_write+0x8c>
        n = ALTERA_AVALON_JTAG_UART_BUF_LEN - in;
    2380:	00820004 	movi	r2,2048
    2384:	e0fffa17 	ldw	r3,-24(fp)
    2388:	10c5c83a 	sub	r2,r2,r3
    238c:	e0bff815 	stw	r2,-32(fp)
    2390:	00000406 	br	23a4 <altera_avalon_jtag_uart_write+0x9c>
      else
        n = ALTERA_AVALON_JTAG_UART_BUF_LEN - 1 - in;
    2394:	0081ffc4 	movi	r2,2047
    2398:	e0fffa17 	ldw	r3,-24(fp)
    239c:	10c5c83a 	sub	r2,r2,r3
    23a0:	e0bff815 	stw	r2,-32(fp)

      if (n == 0)
    23a4:	e0bff817 	ldw	r2,-32(fp)
    23a8:	1005003a 	cmpeq	r2,r2,zero
    23ac:	10001f1e 	bne	r2,zero,242c <altera_avalon_jtag_uart_write+0x124>
        break;

      if (n > count)
    23b0:	e0fffd17 	ldw	r3,-12(fp)
    23b4:	e0bff817 	ldw	r2,-32(fp)
    23b8:	1880022e 	bgeu	r3,r2,23c4 <altera_avalon_jtag_uart_write+0xbc>
        n = count;
    23bc:	e0bffd17 	ldw	r2,-12(fp)
    23c0:	e0bff815 	stw	r2,-32(fp)

      memcpy(sp->tx_buf + in, ptr, n);
    23c4:	e0bffb17 	ldw	r2,-20(fp)
    23c8:	10c20e04 	addi	r3,r2,2104
    23cc:	e0bffa17 	ldw	r2,-24(fp)
    23d0:	1885883a 	add	r2,r3,r2
    23d4:	e0fffc17 	ldw	r3,-16(fp)
    23d8:	1009883a 	mov	r4,r2
    23dc:	180b883a 	mov	r5,r3
    23e0:	e1bff817 	ldw	r6,-32(fp)
    23e4:	0000f4c0 	call	f4c <memcpy>
      ptr   += n;
    23e8:	e0fff817 	ldw	r3,-32(fp)
    23ec:	e0bffc17 	ldw	r2,-16(fp)
    23f0:	10c5883a 	add	r2,r2,r3
    23f4:	e0bffc15 	stw	r2,-16(fp)
      count -= n;
    23f8:	e0fffd17 	ldw	r3,-12(fp)
    23fc:	e0bff817 	ldw	r2,-32(fp)
    2400:	1885c83a 	sub	r2,r3,r2
    2404:	e0bffd15 	stw	r2,-12(fp)

      sp->tx_in = (in + n) % ALTERA_AVALON_JTAG_UART_BUF_LEN;
    2408:	e0fffa17 	ldw	r3,-24(fp)
    240c:	e0bff817 	ldw	r2,-32(fp)
    2410:	1885883a 	add	r2,r3,r2
    2414:	10c1ffcc 	andi	r3,r2,2047
    2418:	e0bffb17 	ldw	r2,-20(fp)
    241c:	10c00c15 	stw	r3,48(r2)
  ALT_SEM_PEND (sp->write_lock, 0);

  do
  {
    /* Copy as much as we can into the transmit buffer */
    while (count > 0)
    2420:	e0bffd17 	ldw	r2,-12(fp)
    2424:	10800048 	cmpgei	r2,r2,1
    2428:	103fc31e 	bne	r2,zero,2338 <altera_avalon_jtag_uart_write+0x30>
static ALT_INLINE alt_irq_context ALT_ALWAYS_INLINE 
       alt_irq_disable_all (void)
{
  alt_irq_context context;

  NIOS2_READ_STATUS (context);
    242c:	0005303a 	rdctl	r2,status
    2430:	e0bff515 	stw	r2,-44(fp)

  NIOS2_WRITE_STATUS (context & ~NIOS2_STATUS_PIE_MSK);
    2434:	e0fff517 	ldw	r3,-44(fp)
    2438:	00bfff84 	movi	r2,-2
    243c:	1884703a 	and	r2,r3,r2
    2440:	1001703a 	wrctl	status,r2
  
  return context;
    2444:	e0bff517 	ldw	r2,-44(fp)
     * to enable interrupts if there is no space left in the FIFO
     *
     * For now kick the interrupt routine every time to make it transmit 
     * the data 
     */
    context = alt_irq_disable_all();
    2448:	e0bff715 	stw	r2,-36(fp)
    sp->irq_enable |= ALTERA_AVALON_JTAG_UART_CONTROL_WE_MSK;
    244c:	e0bffb17 	ldw	r2,-20(fp)
    2450:	10800817 	ldw	r2,32(r2)
    2454:	10c00094 	ori	r3,r2,2
    2458:	e0bffb17 	ldw	r2,-20(fp)
    245c:	10c00815 	stw	r3,32(r2)
    IOWR_ALTERA_AVALON_JTAG_UART_CONTROL(sp->base, sp->irq_enable);
    2460:	e0bffb17 	ldw	r2,-20(fp)
    2464:	10800017 	ldw	r2,0(r2)
    2468:	11000104 	addi	r4,r2,4
    246c:	e0bffb17 	ldw	r2,-20(fp)
    2470:	10800817 	ldw	r2,32(r2)
    2474:	1007883a 	mov	r3,r2
    2478:	2005883a 	mov	r2,r4
    247c:	10c00035 	stwio	r3,0(r2)
    2480:	e0bff717 	ldw	r2,-36(fp)
    2484:	e0bff415 	stw	r2,-48(fp)
  status &= ~NIOS2_STATUS_PIE_MSK;
  status |= (context & NIOS2_STATUS_PIE_MSK);
  
  NIOS2_WRITE_STATUS (status);
#else
  NIOS2_WRITE_STATUS (context);
    2488:	e0bff417 	ldw	r2,-48(fp)
    248c:	1001703a 	wrctl	status,r2
    /* 
     * If there is any data left then either return now or block until 
     * some has been sent 
     */
    /* consider: test whether there is anything there while doing this and delay for at most 2s. */
    if (count > 0)
    2490:	e0bffd17 	ldw	r2,-12(fp)
    2494:	10800050 	cmplti	r2,r2,1
    2498:	1000111e 	bne	r2,zero,24e0 <altera_avalon_jtag_uart_write+0x1d8>
    {
      if (flags & O_NONBLOCK)
    249c:	e0bffe17 	ldw	r2,-8(fp)
    24a0:	1090000c 	andi	r2,r2,16384
    24a4:	1004c03a 	cmpne	r2,r2,zero
    24a8:	1000101e 	bne	r2,zero,24ec <altera_avalon_jtag_uart_write+0x1e4>
      /*
       * No OS present: Always wait for data to be removed from buffer.  Once
       * the interrupt routine has removed some data then we will be able to
       * insert some more.
       */
      while (out == sp->tx_out && sp->host_inactive < sp->timeout)
    24ac:	e0bffb17 	ldw	r2,-20(fp)
    24b0:	10c00d17 	ldw	r3,52(r2)
    24b4:	e0bff917 	ldw	r2,-28(fp)
    24b8:	1880051e 	bne	r3,r2,24d0 <altera_avalon_jtag_uart_write+0x1c8>
    24bc:	e0bffb17 	ldw	r2,-20(fp)
    24c0:	10c00917 	ldw	r3,36(r2)
    24c4:	e0bffb17 	ldw	r2,-20(fp)
    24c8:	10800117 	ldw	r2,4(r2)
    24cc:	18bff736 	bltu	r3,r2,24ac <altera_avalon_jtag_uart_write+0x1a4>
        ;
#endif /* __ucosii__ */

      if (out == sp->tx_out)
    24d0:	e0bffb17 	ldw	r2,-20(fp)
    24d4:	10c00d17 	ldw	r3,52(r2)
    24d8:	e0bff917 	ldw	r2,-28(fp)
    24dc:	18800326 	beq	r3,r2,24ec <altera_avalon_jtag_uart_write+0x1e4>
         break;
    }
  }
  while (count > 0);
    24e0:	e0bffd17 	ldw	r2,-12(fp)
    24e4:	10800048 	cmpgei	r2,r2,1
    24e8:	103fcd1e 	bne	r2,zero,2420 <altera_avalon_jtag_uart_write+0x118>
   * Now that access to the circular buffer is complete, release the write
   * semaphore so that other threads can access the buffer.
   */
  ALT_SEM_POST (sp->write_lock);

  if (ptr != start)
    24ec:	e0fffc17 	ldw	r3,-16(fp)
    24f0:	e0bff617 	ldw	r2,-40(fp)
    24f4:	18800526 	beq	r3,r2,250c <altera_avalon_jtag_uart_write+0x204>
    return ptr - start;
    24f8:	e0fffc17 	ldw	r3,-16(fp)
    24fc:	e0bff617 	ldw	r2,-40(fp)
    2500:	1887c83a 	sub	r3,r3,r2
    2504:	e0ffff15 	stw	r3,-4(fp)
    2508:	00000906 	br	2530 <altera_avalon_jtag_uart_write+0x228>
  else if (flags & O_NONBLOCK)
    250c:	e0bffe17 	ldw	r2,-8(fp)
    2510:	1090000c 	andi	r2,r2,16384
    2514:	1005003a 	cmpeq	r2,r2,zero
    2518:	1000031e 	bne	r2,zero,2528 <altera_avalon_jtag_uart_write+0x220>
    return -EWOULDBLOCK;
    251c:	00bffd44 	movi	r2,-11
    2520:	e0bfff15 	stw	r2,-4(fp)
    2524:	00000206 	br	2530 <altera_avalon_jtag_uart_write+0x228>
    sp->tx_out = sp->tx_in = 0;
    return ptr - start + count;
  }
#endif
  else
    return -EIO; /* Host not connected */
    2528:	00bffec4 	movi	r2,-5
    252c:	e0bfff15 	stw	r2,-4(fp)
    2530:	e0bfff17 	ldw	r2,-4(fp)
}
    2534:	e037883a 	mov	sp,fp
    2538:	dfc00117 	ldw	ra,4(sp)
    253c:	df000017 	ldw	fp,0(sp)
    2540:	dec00204 	addi	sp,sp,8
    2544:	f800283a 	ret

00002548 <alt_avalon_timer_sc_irq>:
#ifdef ALT_ENHANCED_INTERRUPT_API_PRESENT
static void alt_avalon_timer_sc_irq (void* base)
#else
static void alt_avalon_timer_sc_irq (void* base, alt_u32 id)
#endif
{
    2548:	defff904 	addi	sp,sp,-28
    254c:	dfc00615 	stw	ra,24(sp)
    2550:	df000515 	stw	fp,20(sp)
    2554:	df000504 	addi	fp,sp,20
    2558:	e13ffe15 	stw	r4,-8(fp)
    255c:	e17fff15 	stw	r5,-4(fp)
  alt_irq_context cpu_sr;
  
  /* clear the interrupt */
  IOWR_ALTERA_AVALON_TIMER_STATUS (base, 0);
    2560:	e0bffe17 	ldw	r2,-8(fp)
    2564:	10000035 	stwio	zero,0(r2)
  /* 
   * Dummy read to ensure IRQ is negated before the ISR returns.
   * The control register is read because reading the status
   * register has side-effects per the register map documentation.
   */
  IORD_ALTERA_AVALON_TIMER_CONTROL (base);
    2568:	e0bffe17 	ldw	r2,-8(fp)
    256c:	10800104 	addi	r2,r2,4
    2570:	10800037 	ldwio	r2,0(r2)
static ALT_INLINE alt_irq_context ALT_ALWAYS_INLINE 
       alt_irq_disable_all (void)
{
  alt_irq_context context;

  NIOS2_READ_STATUS (context);
    2574:	0005303a 	rdctl	r2,status
    2578:	e0bffc15 	stw	r2,-16(fp)

  NIOS2_WRITE_STATUS (context & ~NIOS2_STATUS_PIE_MSK);
    257c:	e0fffc17 	ldw	r3,-16(fp)
    2580:	00bfff84 	movi	r2,-2
    2584:	1884703a 	and	r2,r3,r2
    2588:	1001703a 	wrctl	status,r2
  
  return context;
    258c:	e0bffc17 	ldw	r2,-16(fp)

  /* 
   * Notify the system of a clock tick. disable interrupts 
   * during this time to safely support ISR preemption
   */
  cpu_sr = alt_irq_disable_all();
    2590:	e0bffd15 	stw	r2,-12(fp)
  alt_tick ();
    2594:	00068740 	call	6874 <alt_tick>
    2598:	e0bffd17 	ldw	r2,-12(fp)
    259c:	e0bffb15 	stw	r2,-20(fp)
  status &= ~NIOS2_STATUS_PIE_MSK;
  status |= (context & NIOS2_STATUS_PIE_MSK);
  
  NIOS2_WRITE_STATUS (status);
#else
  NIOS2_WRITE_STATUS (context);
    25a0:	e0bffb17 	ldw	r2,-20(fp)
    25a4:	1001703a 	wrctl	status,r2
  alt_irq_enable_all(cpu_sr);
}
    25a8:	e037883a 	mov	sp,fp
    25ac:	dfc00117 	ldw	ra,4(sp)
    25b0:	df000017 	ldw	fp,0(sp)
    25b4:	dec00204 	addi	sp,sp,8
    25b8:	f800283a 	ret

000025bc <alt_avalon_timer_sc_init>:
 * auto-generated alt_sys_init() function.
 */

void alt_avalon_timer_sc_init (void* base, alt_u32 irq_controller_id, 
                                alt_u32 irq, alt_u32 freq)
{
    25bc:	defff904 	addi	sp,sp,-28
    25c0:	dfc00615 	stw	ra,24(sp)
    25c4:	df000515 	stw	fp,20(sp)
    25c8:	df000504 	addi	fp,sp,20
    25cc:	e13ffc15 	stw	r4,-16(fp)
    25d0:	e17ffd15 	stw	r5,-12(fp)
    25d4:	e1bffe15 	stw	r6,-8(fp)
    25d8:	e1ffff15 	stw	r7,-4(fp)
    25dc:	e0bfff17 	ldw	r2,-4(fp)
    25e0:	e0bffb15 	stw	r2,-20(fp)
 * in order to initialise the value of the clock frequency.
 */

static ALT_INLINE int ALT_ALWAYS_INLINE alt_sysclk_init (alt_u32 nticks)
{
  if (! _alt_tick_rate)
    25e4:	00800074 	movhi	r2,1
    25e8:	10b63004 	addi	r2,r2,-10048
    25ec:	10800017 	ldw	r2,0(r2)
    25f0:	1004c03a 	cmpne	r2,r2,zero
    25f4:	1000041e 	bne	r2,zero,2608 <alt_avalon_timer_sc_init+0x4c>
  {
    _alt_tick_rate = nticks;
    25f8:	00c00074 	movhi	r3,1
    25fc:	18f63004 	addi	r3,r3,-10048
    2600:	e0bffb17 	ldw	r2,-20(fp)
    2604:	18800015 	stw	r2,0(r3)
  
  alt_sysclk_init (freq);
  
  /* set to free running mode */
  
  IOWR_ALTERA_AVALON_TIMER_CONTROL (base, 
    2608:	e0bffc17 	ldw	r2,-16(fp)
    260c:	10800104 	addi	r2,r2,4
    2610:	1007883a 	mov	r3,r2
    2614:	008001c4 	movi	r2,7
    2618:	18800035 	stwio	r2,0(r3)
  /* register the interrupt handler, and enable the interrupt */
#ifdef ALT_ENHANCED_INTERRUPT_API_PRESENT
  alt_ic_isr_register(irq_controller_id, irq, alt_avalon_timer_sc_irq, 
                      base, NULL);
#else
  alt_irq_register (irq, base, alt_avalon_timer_sc_irq);
    261c:	e13ffe17 	ldw	r4,-8(fp)
    2620:	e17ffc17 	ldw	r5,-16(fp)
    2624:	01800034 	movhi	r6,0
    2628:	31895204 	addi	r6,r6,9544
    262c:	00010840 	call	1084 <alt_irq_register>
#endif  
}
    2630:	e037883a 	mov	sp,fp
    2634:	dfc00117 	ldw	ra,4(sp)
    2638:	df000017 	ldw	fp,0(sp)
    263c:	dec00204 	addi	sp,sp,8
    2640:	f800283a 	ret

00002644 <alt_up_audio_open_dev>:
#include "altera_up_avalon_audio_regs.h"

///////////////////////////////////////////////////////////////////////////
// Direct functions
alt_up_audio_dev* alt_up_audio_open_dev(const char* name)
{
    2644:	defffc04 	addi	sp,sp,-16
    2648:	dfc00315 	stw	ra,12(sp)
    264c:	df000215 	stw	fp,8(sp)
    2650:	df000204 	addi	fp,sp,8
    2654:	e13fff15 	stw	r4,-4(fp)
  // find the device from the device list 
  // (see altera_hal/HAL/inc/priv/alt_file.h 
  // and altera_hal/HAL/src/alt_find_dev.c 
  // for details)
  alt_up_audio_dev *dev = (alt_up_audio_dev*)alt_find_dev(name, &alt_dev_list);
    2658:	e13fff17 	ldw	r4,-4(fp)
    265c:	01400074 	movhi	r5,1
    2660:	296e9c04 	addi	r5,r5,-17808
    2664:	00062b80 	call	62b8 <alt_find_dev>
    2668:	e0bffe15 	stw	r2,-8(fp)
  return dev;
    266c:	e0bffe17 	ldw	r2,-8(fp)
}
    2670:	e037883a 	mov	sp,fp
    2674:	dfc00117 	ldw	ra,4(sp)
    2678:	df000017 	ldw	fp,0(sp)
    267c:	dec00204 	addi	sp,sp,8
    2680:	f800283a 	ret

00002684 <alt_up_audio_enable_read_interrupt>:

void alt_up_audio_enable_read_interrupt(alt_up_audio_dev *audio)
{
    2684:	defffd04 	addi	sp,sp,-12
    2688:	df000215 	stw	fp,8(sp)
    268c:	df000204 	addi	fp,sp,8
    2690:	e13fff15 	stw	r4,-4(fp)
	unsigned int ctrl_reg;
	ctrl_reg = IORD_ALT_UP_AUDIO_CONTROL(audio->base); 
    2694:	e0bfff17 	ldw	r2,-4(fp)
    2698:	10800a17 	ldw	r2,40(r2)
    269c:	10800037 	ldwio	r2,0(r2)
    26a0:	e0bffe15 	stw	r2,-8(fp)
	// set RE to 1 while maintaining other bits the same
	ctrl_reg |= ALT_UP_AUDIO_CONTROL_RE_MSK;
    26a4:	e0bffe17 	ldw	r2,-8(fp)
    26a8:	10800054 	ori	r2,r2,1
    26ac:	e0bffe15 	stw	r2,-8(fp)
	IOWR_ALT_UP_AUDIO_CONTROL(audio->base, ctrl_reg);
    26b0:	e0bfff17 	ldw	r2,-4(fp)
    26b4:	10800a17 	ldw	r2,40(r2)
    26b8:	e0fffe17 	ldw	r3,-8(fp)
    26bc:	10c00035 	stwio	r3,0(r2)
}
    26c0:	e037883a 	mov	sp,fp
    26c4:	df000017 	ldw	fp,0(sp)
    26c8:	dec00104 	addi	sp,sp,4
    26cc:	f800283a 	ret

000026d0 <alt_up_audio_disable_read_interrupt>:

void alt_up_audio_disable_read_interrupt(alt_up_audio_dev *audio)
{
    26d0:	defffd04 	addi	sp,sp,-12
    26d4:	df000215 	stw	fp,8(sp)
    26d8:	df000204 	addi	fp,sp,8
    26dc:	e13fff15 	stw	r4,-4(fp)
	unsigned int ctrl_reg;
	ctrl_reg = IORD_ALT_UP_AUDIO_CONTROL(audio->base); 
    26e0:	e0bfff17 	ldw	r2,-4(fp)
    26e4:	10800a17 	ldw	r2,40(r2)
    26e8:	10800037 	ldwio	r2,0(r2)
    26ec:	e0bffe15 	stw	r2,-8(fp)
	// set RE to 0 while maintaining other bits the same
	ctrl_reg &= ~ALT_UP_AUDIO_CONTROL_RE_MSK;
    26f0:	e0fffe17 	ldw	r3,-8(fp)
    26f4:	00bfff84 	movi	r2,-2
    26f8:	1884703a 	and	r2,r3,r2
    26fc:	e0bffe15 	stw	r2,-8(fp)
	IOWR_ALT_UP_AUDIO_CONTROL(audio->base, ctrl_reg);
    2700:	e0bfff17 	ldw	r2,-4(fp)
    2704:	10800a17 	ldw	r2,40(r2)
    2708:	e0fffe17 	ldw	r3,-8(fp)
    270c:	10c00035 	stwio	r3,0(r2)
}
    2710:	e037883a 	mov	sp,fp
    2714:	df000017 	ldw	fp,0(sp)
    2718:	dec00104 	addi	sp,sp,4
    271c:	f800283a 	ret

00002720 <alt_up_audio_enable_write_interrupt>:

void alt_up_audio_enable_write_interrupt(alt_up_audio_dev *audio)
{
    2720:	defffd04 	addi	sp,sp,-12
    2724:	df000215 	stw	fp,8(sp)
    2728:	df000204 	addi	fp,sp,8
    272c:	e13fff15 	stw	r4,-4(fp)
	unsigned int ctrl_reg;
	ctrl_reg = IORD_ALT_UP_AUDIO_CONTROL(audio->base); 
    2730:	e0bfff17 	ldw	r2,-4(fp)
    2734:	10800a17 	ldw	r2,40(r2)
    2738:	10800037 	ldwio	r2,0(r2)
    273c:	e0bffe15 	stw	r2,-8(fp)
	// set WE to 1 while maintaining other bits the same
	ctrl_reg |= ALT_UP_AUDIO_CONTROL_WE_MSK;
    2740:	e0bffe17 	ldw	r2,-8(fp)
    2744:	10800094 	ori	r2,r2,2
    2748:	e0bffe15 	stw	r2,-8(fp)
	IOWR_ALT_UP_AUDIO_CONTROL(audio->base, ctrl_reg);
    274c:	e0bfff17 	ldw	r2,-4(fp)
    2750:	10800a17 	ldw	r2,40(r2)
    2754:	e0fffe17 	ldw	r3,-8(fp)
    2758:	10c00035 	stwio	r3,0(r2)
}
    275c:	e037883a 	mov	sp,fp
    2760:	df000017 	ldw	fp,0(sp)
    2764:	dec00104 	addi	sp,sp,4
    2768:	f800283a 	ret

0000276c <alt_up_audio_disable_write_interrupt>:

void alt_up_audio_disable_write_interrupt(alt_up_audio_dev *audio)
{
    276c:	defffd04 	addi	sp,sp,-12
    2770:	df000215 	stw	fp,8(sp)
    2774:	df000204 	addi	fp,sp,8
    2778:	e13fff15 	stw	r4,-4(fp)
	unsigned int ctrl_reg;
	ctrl_reg = IORD_ALT_UP_AUDIO_CONTROL(audio->base); 
    277c:	e0bfff17 	ldw	r2,-4(fp)
    2780:	10800a17 	ldw	r2,40(r2)
    2784:	10800037 	ldwio	r2,0(r2)
    2788:	e0bffe15 	stw	r2,-8(fp)
	// set WE to 0 while maintaining other bits the same
	ctrl_reg &= ~ALT_UP_AUDIO_CONTROL_WE_MSK;
    278c:	e0fffe17 	ldw	r3,-8(fp)
    2790:	00bfff44 	movi	r2,-3
    2794:	1884703a 	and	r2,r3,r2
    2798:	e0bffe15 	stw	r2,-8(fp)
	IOWR_ALT_UP_AUDIO_CONTROL(audio->base, ctrl_reg);
    279c:	e0bfff17 	ldw	r2,-4(fp)
    27a0:	10800a17 	ldw	r2,40(r2)
    27a4:	e0fffe17 	ldw	r3,-8(fp)
    27a8:	10c00035 	stwio	r3,0(r2)
}
    27ac:	e037883a 	mov	sp,fp
    27b0:	df000017 	ldw	fp,0(sp)
    27b4:	dec00104 	addi	sp,sp,4
    27b8:	f800283a 	ret

000027bc <alt_up_audio_read_interrupt_pending>:

int alt_up_audio_read_interrupt_pending(alt_up_audio_dev *audio)
{
    27bc:	defffd04 	addi	sp,sp,-12
    27c0:	df000215 	stw	fp,8(sp)
    27c4:	df000204 	addi	fp,sp,8
    27c8:	e13fff15 	stw	r4,-4(fp)
	unsigned int ctrl_reg;
	ctrl_reg = IORD_ALT_UP_AUDIO_CONTROL(audio->base); 
    27cc:	e0bfff17 	ldw	r2,-4(fp)
    27d0:	10800a17 	ldw	r2,40(r2)
    27d4:	10800037 	ldwio	r2,0(r2)
    27d8:	e0bffe15 	stw	r2,-8(fp)
	// return 1 if RI is set to 1
	return ( (ctrl_reg & ALT_UP_AUDIO_CONTROL_RI_MSK) ? 1 : 0 );
    27dc:	e0bffe17 	ldw	r2,-8(fp)
    27e0:	1080400c 	andi	r2,r2,256
    27e4:	1004c03a 	cmpne	r2,r2,zero
}
    27e8:	e037883a 	mov	sp,fp
    27ec:	df000017 	ldw	fp,0(sp)
    27f0:	dec00104 	addi	sp,sp,4
    27f4:	f800283a 	ret

000027f8 <alt_up_audio_write_interrupt_pending>:

int alt_up_audio_write_interrupt_pending(alt_up_audio_dev *audio)
{
    27f8:	defffd04 	addi	sp,sp,-12
    27fc:	df000215 	stw	fp,8(sp)
    2800:	df000204 	addi	fp,sp,8
    2804:	e13fff15 	stw	r4,-4(fp)
	unsigned int ctrl_reg;
	ctrl_reg = IORD_ALT_UP_AUDIO_CONTROL(audio->base); 
    2808:	e0bfff17 	ldw	r2,-4(fp)
    280c:	10800a17 	ldw	r2,40(r2)
    2810:	10800037 	ldwio	r2,0(r2)
    2814:	e0bffe15 	stw	r2,-8(fp)
	// return the WI value
	return ( (ctrl_reg & ALT_UP_AUDIO_CONTROL_WI_MSK) ? 1 : 0 );
    2818:	e0bffe17 	ldw	r2,-8(fp)
    281c:	1080800c 	andi	r2,r2,512
    2820:	1004c03a 	cmpne	r2,r2,zero
}
    2824:	e037883a 	mov	sp,fp
    2828:	df000017 	ldw	fp,0(sp)
    282c:	dec00104 	addi	sp,sp,4
    2830:	f800283a 	ret

00002834 <alt_up_audio_reset_audio_core>:

void alt_up_audio_reset_audio_core(alt_up_audio_dev *audio)
{
    2834:	defffd04 	addi	sp,sp,-12
    2838:	df000215 	stw	fp,8(sp)
    283c:	df000204 	addi	fp,sp,8
    2840:	e13fff15 	stw	r4,-4(fp)
	unsigned int ctrl_reg;
	ctrl_reg = IORD_ALT_UP_AUDIO_CONTROL(audio->base); 
    2844:	e0bfff17 	ldw	r2,-4(fp)
    2848:	10800a17 	ldw	r2,40(r2)
    284c:	10800037 	ldwio	r2,0(r2)
    2850:	e0bffe15 	stw	r2,-8(fp)
	// set CR and CW to 1 while maintaining other bits the same
	ctrl_reg |= ALT_UP_AUDIO_CONTROL_CR_MSK;
    2854:	e0bffe17 	ldw	r2,-8(fp)
    2858:	10800114 	ori	r2,r2,4
    285c:	e0bffe15 	stw	r2,-8(fp)
	ctrl_reg |= ALT_UP_AUDIO_CONTROL_CW_MSK;
    2860:	e0bffe17 	ldw	r2,-8(fp)
    2864:	10800214 	ori	r2,r2,8
    2868:	e0bffe15 	stw	r2,-8(fp)
	IOWR_ALT_UP_AUDIO_CONTROL(audio->base, ctrl_reg);
    286c:	e0bfff17 	ldw	r2,-4(fp)
    2870:	10800a17 	ldw	r2,40(r2)
    2874:	e0fffe17 	ldw	r3,-8(fp)
    2878:	10c00035 	stwio	r3,0(r2)
	// set CR and CW to 0 while maintaining other bits the same
	ctrl_reg &= ~ALT_UP_AUDIO_CONTROL_CR_MSK;
    287c:	e0fffe17 	ldw	r3,-8(fp)
    2880:	00bffec4 	movi	r2,-5
    2884:	1884703a 	and	r2,r3,r2
    2888:	e0bffe15 	stw	r2,-8(fp)
	ctrl_reg &= ~ALT_UP_AUDIO_CONTROL_CW_MSK;
    288c:	e0fffe17 	ldw	r3,-8(fp)
    2890:	00bffdc4 	movi	r2,-9
    2894:	1884703a 	and	r2,r3,r2
    2898:	e0bffe15 	stw	r2,-8(fp)
	IOWR_ALT_UP_AUDIO_CONTROL(audio->base, ctrl_reg);
    289c:	e0bfff17 	ldw	r2,-4(fp)
    28a0:	10800a17 	ldw	r2,40(r2)
    28a4:	e0fffe17 	ldw	r3,-8(fp)
    28a8:	10c00035 	stwio	r3,0(r2)
}
    28ac:	e037883a 	mov	sp,fp
    28b0:	df000017 	ldw	fp,0(sp)
    28b4:	dec00104 	addi	sp,sp,4
    28b8:	f800283a 	ret

000028bc <alt_up_audio_read_fifo_avail>:

/* Provides number of words of data available in the incoming FIFO: RALC or RARC */
unsigned int alt_up_audio_read_fifo_avail(alt_up_audio_dev *audio, int channel)
{
    28bc:	defffb04 	addi	sp,sp,-20
    28c0:	df000415 	stw	fp,16(sp)
    28c4:	df000404 	addi	fp,sp,16
    28c8:	e13ffd15 	stw	r4,-12(fp)
    28cc:	e17ffe15 	stw	r5,-8(fp)
	unsigned int fifospace;
	// read the whole fifospace register
	fifospace = IORD_ALT_UP_AUDIO_FIFOSPACE(audio->base);
    28d0:	e0bffd17 	ldw	r2,-12(fp)
    28d4:	10800a17 	ldw	r2,40(r2)
    28d8:	10800104 	addi	r2,r2,4
    28dc:	10800037 	ldwio	r2,0(r2)
    28e0:	e0bffc15 	stw	r2,-16(fp)
	// extract the part for proper Channel Read Space
	fifospace = (channel == ALT_UP_AUDIO_LEFT) ? 
    28e4:	e0bffe17 	ldw	r2,-8(fp)
    28e8:	1004c03a 	cmpne	r2,r2,zero
    28ec:	1000051e 	bne	r2,zero,2904 <alt_up_audio_read_fifo_avail+0x48>
    28f0:	e0bffc17 	ldw	r2,-16(fp)
    28f4:	10bfc00c 	andi	r2,r2,65280
    28f8:	1004d23a 	srli	r2,r2,8
    28fc:	e0bfff15 	stw	r2,-4(fp)
    2900:	00000306 	br	2910 <alt_up_audio_read_fifo_avail+0x54>
    2904:	e0bffc17 	ldw	r2,-16(fp)
    2908:	10803fcc 	andi	r2,r2,255
    290c:	e0bfff15 	stw	r2,-4(fp)
    2910:	e0bfff17 	ldw	r2,-4(fp)
    2914:	e0bffc15 	stw	r2,-16(fp)
		(fifospace & ALT_UP_AUDIO_FIFOSPACE_RALC_MSK) >> ALT_UP_AUDIO_FIFOSPACE_RALC_OFST :
		(fifospace & ALT_UP_AUDIO_FIFOSPACE_RARC_MSK) >> ALT_UP_AUDIO_FIFOSPACE_RARC_OFST;
	return (fifospace);
    2918:	e0bffc17 	ldw	r2,-16(fp)
}
    291c:	e037883a 	mov	sp,fp
    2920:	df000017 	ldw	fp,0(sp)
    2924:	dec00104 	addi	sp,sp,4
    2928:	f800283a 	ret

0000292c <alt_up_audio_record_r>:
/* Checks if the read FIFO for the right channel has at least BUF_THRESHOLD data words 
 * available. If it doesn't, then just returns 0. If it does, then data is read from the
 * FIFO up to a maximum of len words, and stored into buf.
 */
unsigned int alt_up_audio_record_r(alt_up_audio_dev *audio, unsigned int *buf, int len)
{
    292c:	defff904 	addi	sp,sp,-28
    2930:	dfc00615 	stw	ra,24(sp)
    2934:	df000515 	stw	fp,20(sp)
    2938:	df000504 	addi	fp,sp,20
    293c:	e13ffc15 	stw	r4,-16(fp)
    2940:	e17ffd15 	stw	r5,-12(fp)
    2944:	e1bffe15 	stw	r6,-8(fp)
	unsigned int data_words = alt_up_audio_read_fifo_avail (audio, ALT_UP_AUDIO_RIGHT);
    2948:	e13ffc17 	ldw	r4,-16(fp)
    294c:	01400044 	movi	r5,1
    2950:	00028bc0 	call	28bc <alt_up_audio_read_fifo_avail>
    2954:	e0bffb15 	stw	r2,-20(fp)
	if (data_words <= BUF_THRESHOLD)
    2958:	e0bffb17 	ldw	r2,-20(fp)
    295c:	10801868 	cmpgeui	r2,r2,97
    2960:	1000021e 	bne	r2,zero,296c <alt_up_audio_record_r+0x40>
		return 0;
    2964:	e03fff15 	stw	zero,-4(fp)
    2968:	00000606 	br	2984 <alt_up_audio_record_r+0x58>
	else
		return (alt_up_audio_read_fifo(audio, buf, len, ALT_UP_AUDIO_RIGHT));
    296c:	e13ffc17 	ldw	r4,-16(fp)
    2970:	e17ffd17 	ldw	r5,-12(fp)
    2974:	e1bffe17 	ldw	r6,-8(fp)
    2978:	01c00044 	movi	r7,1
    297c:	0002b600 	call	2b60 <alt_up_audio_read_fifo>
    2980:	e0bfff15 	stw	r2,-4(fp)
    2984:	e0bfff17 	ldw	r2,-4(fp)
}
    2988:	e037883a 	mov	sp,fp
    298c:	dfc00117 	ldw	ra,4(sp)
    2990:	df000017 	ldw	fp,0(sp)
    2994:	dec00204 	addi	sp,sp,8
    2998:	f800283a 	ret

0000299c <alt_up_audio_record_l>:
/* Checks if the read FIFO for the left channel has at least BUF_THRESHOLD data words 
 * available. If it doesn't, then just returns 0. If it does, then data is read from the
 * FIFO up to a maximum of len words, and stored into buf.
 */
unsigned int alt_up_audio_record_l(alt_up_audio_dev *audio, unsigned int *buf, int len)
{
    299c:	defff904 	addi	sp,sp,-28
    29a0:	dfc00615 	stw	ra,24(sp)
    29a4:	df000515 	stw	fp,20(sp)
    29a8:	df000504 	addi	fp,sp,20
    29ac:	e13ffc15 	stw	r4,-16(fp)
    29b0:	e17ffd15 	stw	r5,-12(fp)
    29b4:	e1bffe15 	stw	r6,-8(fp)
	unsigned int data_words = alt_up_audio_read_fifo_avail (audio, ALT_UP_AUDIO_LEFT);
    29b8:	e13ffc17 	ldw	r4,-16(fp)
    29bc:	000b883a 	mov	r5,zero
    29c0:	00028bc0 	call	28bc <alt_up_audio_read_fifo_avail>
    29c4:	e0bffb15 	stw	r2,-20(fp)
	if (data_words <= BUF_THRESHOLD)
    29c8:	e0bffb17 	ldw	r2,-20(fp)
    29cc:	10801868 	cmpgeui	r2,r2,97
    29d0:	1000021e 	bne	r2,zero,29dc <alt_up_audio_record_l+0x40>
		return 0;
    29d4:	e03fff15 	stw	zero,-4(fp)
    29d8:	00000606 	br	29f4 <alt_up_audio_record_l+0x58>
	else
		return (alt_up_audio_read_fifo(audio, buf, len, ALT_UP_AUDIO_LEFT));
    29dc:	e13ffc17 	ldw	r4,-16(fp)
    29e0:	e17ffd17 	ldw	r5,-12(fp)
    29e4:	e1bffe17 	ldw	r6,-8(fp)
    29e8:	000f883a 	mov	r7,zero
    29ec:	0002b600 	call	2b60 <alt_up_audio_read_fifo>
    29f0:	e0bfff15 	stw	r2,-4(fp)
    29f4:	e0bfff17 	ldw	r2,-4(fp)
}
    29f8:	e037883a 	mov	sp,fp
    29fc:	dfc00117 	ldw	ra,4(sp)
    2a00:	df000017 	ldw	fp,0(sp)
    2a04:	dec00204 	addi	sp,sp,8
    2a08:	f800283a 	ret

00002a0c <alt_up_audio_write_fifo_space>:

/* Provides the amount of empty space available in the outgoing FIFO: WSLC or WSRC */
unsigned int alt_up_audio_write_fifo_space(alt_up_audio_dev *audio, int channel)
{
    2a0c:	defffb04 	addi	sp,sp,-20
    2a10:	df000415 	stw	fp,16(sp)
    2a14:	df000404 	addi	fp,sp,16
    2a18:	e13ffd15 	stw	r4,-12(fp)
    2a1c:	e17ffe15 	stw	r5,-8(fp)
	unsigned int fifospace;
	// read the whole fifospace register
	fifospace = IORD_ALT_UP_AUDIO_FIFOSPACE(audio->base);
    2a20:	e0bffd17 	ldw	r2,-12(fp)
    2a24:	10800a17 	ldw	r2,40(r2)
    2a28:	10800104 	addi	r2,r2,4
    2a2c:	10800037 	ldwio	r2,0(r2)
    2a30:	e0bffc15 	stw	r2,-16(fp)
	// extract the part for proper Channel Read Space
	fifospace = (channel == ALT_UP_AUDIO_LEFT) ? 
    2a34:	e0bffe17 	ldw	r2,-8(fp)
    2a38:	1004c03a 	cmpne	r2,r2,zero
    2a3c:	1000051e 	bne	r2,zero,2a54 <alt_up_audio_write_fifo_space+0x48>
    2a40:	e0bffc17 	ldw	r2,-16(fp)
    2a44:	10bfc02c 	andhi	r2,r2,65280
    2a48:	1004d63a 	srli	r2,r2,24
    2a4c:	e0bfff15 	stw	r2,-4(fp)
    2a50:	00000406 	br	2a64 <alt_up_audio_write_fifo_space+0x58>
    2a54:	e0bffc17 	ldw	r2,-16(fp)
    2a58:	10803fec 	andhi	r2,r2,255
    2a5c:	1004d43a 	srli	r2,r2,16
    2a60:	e0bfff15 	stw	r2,-4(fp)
    2a64:	e0bfff17 	ldw	r2,-4(fp)
    2a68:	e0bffc15 	stw	r2,-16(fp)
		(fifospace & ALT_UP_AUDIO_FIFOSPACE_WSLC_MSK) >> ALT_UP_AUDIO_FIFOSPACE_WSLC_OFST :
		(fifospace & ALT_UP_AUDIO_FIFOSPACE_WSRC_MSK) >> ALT_UP_AUDIO_FIFOSPACE_WSRC_OFST;
	return (fifospace);
    2a6c:	e0bffc17 	ldw	r2,-16(fp)
}
    2a70:	e037883a 	mov	sp,fp
    2a74:	df000017 	ldw	fp,0(sp)
    2a78:	dec00104 	addi	sp,sp,4
    2a7c:	f800283a 	ret

00002a80 <alt_up_audio_play_r>:
/* Checks if the write FIFO for the right channel has at least BUF_THRESHOLD space available.
 * If it doesn't, then just returns 0. If it does, then data from buf is written into the 
 * FIFO, up to a maximum of len words.
 */
unsigned int alt_up_audio_play_r(alt_up_audio_dev *audio, unsigned int *buf, int len)
{
    2a80:	defff904 	addi	sp,sp,-28
    2a84:	dfc00615 	stw	ra,24(sp)
    2a88:	df000515 	stw	fp,20(sp)
    2a8c:	df000504 	addi	fp,sp,20
    2a90:	e13ffc15 	stw	r4,-16(fp)
    2a94:	e17ffd15 	stw	r5,-12(fp)
    2a98:	e1bffe15 	stw	r6,-8(fp)
	unsigned int space = alt_up_audio_write_fifo_space (audio, ALT_UP_AUDIO_RIGHT);
    2a9c:	e13ffc17 	ldw	r4,-16(fp)
    2aa0:	01400044 	movi	r5,1
    2aa4:	0002a0c0 	call	2a0c <alt_up_audio_write_fifo_space>
    2aa8:	e0bffb15 	stw	r2,-20(fp)
	if (space <= BUF_THRESHOLD)
    2aac:	e0bffb17 	ldw	r2,-20(fp)
    2ab0:	10801868 	cmpgeui	r2,r2,97
    2ab4:	1000021e 	bne	r2,zero,2ac0 <alt_up_audio_play_r+0x40>
		return 0;
    2ab8:	e03fff15 	stw	zero,-4(fp)
    2abc:	00000606 	br	2ad8 <alt_up_audio_play_r+0x58>
	else
		return (alt_up_audio_write_fifo(audio, buf, len, ALT_UP_AUDIO_RIGHT));
    2ac0:	e13ffc17 	ldw	r4,-16(fp)
    2ac4:	e17ffd17 	ldw	r5,-12(fp)
    2ac8:	e1bffe17 	ldw	r6,-8(fp)
    2acc:	01c00044 	movi	r7,1
    2ad0:	0002c640 	call	2c64 <alt_up_audio_write_fifo>
    2ad4:	e0bfff15 	stw	r2,-4(fp)
    2ad8:	e0bfff17 	ldw	r2,-4(fp)
}
    2adc:	e037883a 	mov	sp,fp
    2ae0:	dfc00117 	ldw	ra,4(sp)
    2ae4:	df000017 	ldw	fp,0(sp)
    2ae8:	dec00204 	addi	sp,sp,8
    2aec:	f800283a 	ret

00002af0 <alt_up_audio_play_l>:
/* Checks if the write FIFO for the left channel has at least BUF_THRESHOLD space available.
 * If it doesn't, then just returns 0. If it does, then data from buf is written into the 
 * FIFO, up to a maximum of len words.
 */
unsigned int alt_up_audio_play_l(alt_up_audio_dev *audio, unsigned int *buf, int len)
{
    2af0:	defff904 	addi	sp,sp,-28
    2af4:	dfc00615 	stw	ra,24(sp)
    2af8:	df000515 	stw	fp,20(sp)
    2afc:	df000504 	addi	fp,sp,20
    2b00:	e13ffc15 	stw	r4,-16(fp)
    2b04:	e17ffd15 	stw	r5,-12(fp)
    2b08:	e1bffe15 	stw	r6,-8(fp)
	unsigned int space = alt_up_audio_write_fifo_space (audio, ALT_UP_AUDIO_LEFT);
    2b0c:	e13ffc17 	ldw	r4,-16(fp)
    2b10:	000b883a 	mov	r5,zero
    2b14:	0002a0c0 	call	2a0c <alt_up_audio_write_fifo_space>
    2b18:	e0bffb15 	stw	r2,-20(fp)
	if (space <= BUF_THRESHOLD)
    2b1c:	e0bffb17 	ldw	r2,-20(fp)
    2b20:	10801868 	cmpgeui	r2,r2,97
    2b24:	1000021e 	bne	r2,zero,2b30 <alt_up_audio_play_l+0x40>
		return 0;
    2b28:	e03fff15 	stw	zero,-4(fp)
    2b2c:	00000606 	br	2b48 <alt_up_audio_play_l+0x58>
	else
		return (alt_up_audio_write_fifo(audio, buf, len, ALT_UP_AUDIO_LEFT));
    2b30:	e13ffc17 	ldw	r4,-16(fp)
    2b34:	e17ffd17 	ldw	r5,-12(fp)
    2b38:	e1bffe17 	ldw	r6,-8(fp)
    2b3c:	000f883a 	mov	r7,zero
    2b40:	0002c640 	call	2c64 <alt_up_audio_write_fifo>
    2b44:	e0bfff15 	stw	r2,-4(fp)
    2b48:	e0bfff17 	ldw	r2,-4(fp)
}
    2b4c:	e037883a 	mov	sp,fp
    2b50:	dfc00117 	ldw	ra,4(sp)
    2b54:	df000017 	ldw	fp,0(sp)
    2b58:	dec00204 	addi	sp,sp,8
    2b5c:	f800283a 	ret

00002b60 <alt_up_audio_read_fifo>:

int alt_up_audio_read_fifo(alt_up_audio_dev *audio, unsigned int *buf, int len, int channel)
{
    2b60:	defff604 	addi	sp,sp,-40
    2b64:	df000915 	stw	fp,36(sp)
    2b68:	df000904 	addi	fp,sp,36
    2b6c:	e13ff915 	stw	r4,-28(fp)
    2b70:	e17ffa15 	stw	r5,-24(fp)
    2b74:	e1bffb15 	stw	r6,-20(fp)
    2b78:	e1fffc15 	stw	r7,-16(fp)
	unsigned int fifospace;
	int count = 0;
    2b7c:	e03ff715 	stw	zero,-36(fp)
	while ( count < len ) 
    2b80:	00003006 	br	2c44 <alt_up_audio_read_fifo+0xe4>
	{
		// read the whole fifospace register
		fifospace = IORD_ALT_UP_AUDIO_FIFOSPACE(audio->base);
    2b84:	e0bff917 	ldw	r2,-28(fp)
    2b88:	10800a17 	ldw	r2,40(r2)
    2b8c:	10800104 	addi	r2,r2,4
    2b90:	10800037 	ldwio	r2,0(r2)
    2b94:	e0bff815 	stw	r2,-32(fp)
		// extract the part for proper Channel Read Space
		fifospace = (channel == ALT_UP_AUDIO_LEFT) ? 
    2b98:	e0bffc17 	ldw	r2,-16(fp)
    2b9c:	1004c03a 	cmpne	r2,r2,zero
    2ba0:	1000051e 	bne	r2,zero,2bb8 <alt_up_audio_read_fifo+0x58>
    2ba4:	e0bff817 	ldw	r2,-32(fp)
    2ba8:	10bfc00c 	andi	r2,r2,65280
    2bac:	1004d23a 	srli	r2,r2,8
    2bb0:	e0bfff15 	stw	r2,-4(fp)
    2bb4:	00000306 	br	2bc4 <alt_up_audio_read_fifo+0x64>
    2bb8:	e0bff817 	ldw	r2,-32(fp)
    2bbc:	10803fcc 	andi	r2,r2,255
    2bc0:	e0bfff15 	stw	r2,-4(fp)
    2bc4:	e0bfff17 	ldw	r2,-4(fp)
    2bc8:	e0bff815 	stw	r2,-32(fp)
			(fifospace & ALT_UP_AUDIO_FIFOSPACE_RALC_MSK) >> ALT_UP_AUDIO_FIFOSPACE_RALC_OFST 
			:
			(fifospace & ALT_UP_AUDIO_FIFOSPACE_RARC_MSK) >> ALT_UP_AUDIO_FIFOSPACE_RARC_OFST;
		if (fifospace > 0) 
    2bcc:	e0bff817 	ldw	r2,-32(fp)
    2bd0:	1005003a 	cmpeq	r2,r2,zero
    2bd4:	10001e1e 	bne	r2,zero,2c50 <alt_up_audio_read_fifo+0xf0>
		{
			buf[count] = (channel == ALT_UP_AUDIO_LEFT) ? 
    2bd8:	e0bff717 	ldw	r2,-36(fp)
    2bdc:	1085883a 	add	r2,r2,r2
    2be0:	1085883a 	add	r2,r2,r2
    2be4:	1007883a 	mov	r3,r2
    2be8:	e0bffa17 	ldw	r2,-24(fp)
    2bec:	1887883a 	add	r3,r3,r2
    2bf0:	e0fffe15 	stw	r3,-8(fp)
    2bf4:	e0bffc17 	ldw	r2,-16(fp)
    2bf8:	1004c03a 	cmpne	r2,r2,zero
    2bfc:	1000061e 	bne	r2,zero,2c18 <alt_up_audio_read_fifo+0xb8>
    2c00:	e0bff917 	ldw	r2,-28(fp)
    2c04:	10800a17 	ldw	r2,40(r2)
    2c08:	10800204 	addi	r2,r2,8
    2c0c:	10800037 	ldwio	r2,0(r2)
    2c10:	e0bffd15 	stw	r2,-12(fp)
    2c14:	00000506 	br	2c2c <alt_up_audio_read_fifo+0xcc>
    2c18:	e0bff917 	ldw	r2,-28(fp)
    2c1c:	10800a17 	ldw	r2,40(r2)
    2c20:	10800304 	addi	r2,r2,12
    2c24:	10800037 	ldwio	r2,0(r2)
    2c28:	e0bffd15 	stw	r2,-12(fp)
    2c2c:	e0fffd17 	ldw	r3,-12(fp)
    2c30:	e0bffe17 	ldw	r2,-8(fp)
    2c34:	10c00015 	stw	r3,0(r2)
				IORD_ALT_UP_AUDIO_LEFTDATA(audio->base) :
				IORD_ALT_UP_AUDIO_RIGHTDATA(audio->base);
			count ++;
    2c38:	e0bff717 	ldw	r2,-36(fp)
    2c3c:	10800044 	addi	r2,r2,1
    2c40:	e0bff715 	stw	r2,-36(fp)

int alt_up_audio_read_fifo(alt_up_audio_dev *audio, unsigned int *buf, int len, int channel)
{
	unsigned int fifospace;
	int count = 0;
	while ( count < len ) 
    2c44:	e0fff717 	ldw	r3,-36(fp)
    2c48:	e0bffb17 	ldw	r2,-20(fp)
    2c4c:	18bfcd16 	blt	r3,r2,2b84 <alt_up_audio_read_fifo+0x24>
		{
			// no more data to read
			break;
		}
	}
	return count;
    2c50:	e0bff717 	ldw	r2,-36(fp)
}
    2c54:	e037883a 	mov	sp,fp
    2c58:	df000017 	ldw	fp,0(sp)
    2c5c:	dec00104 	addi	sp,sp,4
    2c60:	f800283a 	ret

00002c64 <alt_up_audio_write_fifo>:

int alt_up_audio_write_fifo(alt_up_audio_dev *audio, unsigned int *buf, int len, int channel)
{
    2c64:	defff804 	addi	sp,sp,-32
    2c68:	df000715 	stw	fp,28(sp)
    2c6c:	df000704 	addi	fp,sp,28
    2c70:	e13ffb15 	stw	r4,-20(fp)
    2c74:	e17ffc15 	stw	r5,-16(fp)
    2c78:	e1bffd15 	stw	r6,-12(fp)
    2c7c:	e1fffe15 	stw	r7,-8(fp)
	unsigned int fifospace;
	int count = 0;
    2c80:	e03ff915 	stw	zero,-28(fp)
	while ( count < len ) 
    2c84:	00003a06 	br	2d70 <alt_up_audio_write_fifo+0x10c>
	{
		// read the whole fifospace register
		fifospace = IORD_ALT_UP_AUDIO_FIFOSPACE(audio->base);
    2c88:	e0bffb17 	ldw	r2,-20(fp)
    2c8c:	10800a17 	ldw	r2,40(r2)
    2c90:	10800104 	addi	r2,r2,4
    2c94:	10800037 	ldwio	r2,0(r2)
    2c98:	e0bffa15 	stw	r2,-24(fp)
		// extract the part for Left Channel Write Space 
		fifospace = (channel == ALT_UP_AUDIO_LEFT) ? 
    2c9c:	e0bffe17 	ldw	r2,-8(fp)
    2ca0:	1004c03a 	cmpne	r2,r2,zero
    2ca4:	1000051e 	bne	r2,zero,2cbc <alt_up_audio_write_fifo+0x58>
    2ca8:	e0bffa17 	ldw	r2,-24(fp)
    2cac:	10bfc02c 	andhi	r2,r2,65280
    2cb0:	1004d63a 	srli	r2,r2,24
    2cb4:	e0bfff15 	stw	r2,-4(fp)
    2cb8:	00000406 	br	2ccc <alt_up_audio_write_fifo+0x68>
    2cbc:	e0bffa17 	ldw	r2,-24(fp)
    2cc0:	10803fec 	andhi	r2,r2,255
    2cc4:	1004d43a 	srli	r2,r2,16
    2cc8:	e0bfff15 	stw	r2,-4(fp)
    2ccc:	e0bfff17 	ldw	r2,-4(fp)
    2cd0:	e0bffa15 	stw	r2,-24(fp)
			(fifospace & ALT_UP_AUDIO_FIFOSPACE_WSLC_MSK) >> ALT_UP_AUDIO_FIFOSPACE_WSLC_OFST :
			(fifospace & ALT_UP_AUDIO_FIFOSPACE_WSRC_MSK) >> ALT_UP_AUDIO_FIFOSPACE_WSRC_OFST;
		if (fifospace > 0) 
    2cd4:	e0bffa17 	ldw	r2,-24(fp)
    2cd8:	1005003a 	cmpeq	r2,r2,zero
    2cdc:	1000271e 	bne	r2,zero,2d7c <alt_up_audio_write_fifo+0x118>
		{
			if (channel == ALT_UP_AUDIO_LEFT) 
    2ce0:	e0bffe17 	ldw	r2,-8(fp)
    2ce4:	1004c03a 	cmpne	r2,r2,zero
    2ce8:	1000111e 	bne	r2,zero,2d30 <alt_up_audio_write_fifo+0xcc>
				IOWR_ALT_UP_AUDIO_LEFTDATA(audio->base, buf[count++]);
    2cec:	e0bffb17 	ldw	r2,-20(fp)
    2cf0:	10800a17 	ldw	r2,40(r2)
    2cf4:	11000204 	addi	r4,r2,8
    2cf8:	e0bff917 	ldw	r2,-28(fp)
    2cfc:	1085883a 	add	r2,r2,r2
    2d00:	1085883a 	add	r2,r2,r2
    2d04:	1007883a 	mov	r3,r2
    2d08:	e0bffc17 	ldw	r2,-16(fp)
    2d0c:	1885883a 	add	r2,r3,r2
    2d10:	10800017 	ldw	r2,0(r2)
    2d14:	1007883a 	mov	r3,r2
    2d18:	e0bff917 	ldw	r2,-28(fp)
    2d1c:	10800044 	addi	r2,r2,1
    2d20:	e0bff915 	stw	r2,-28(fp)
    2d24:	2005883a 	mov	r2,r4
    2d28:	10c00035 	stwio	r3,0(r2)
    2d2c:	00001006 	br	2d70 <alt_up_audio_write_fifo+0x10c>
			else
				IOWR_ALT_UP_AUDIO_RIGHTDATA(audio->base, buf[count++]);
    2d30:	e0bffb17 	ldw	r2,-20(fp)
    2d34:	10800a17 	ldw	r2,40(r2)
    2d38:	11000304 	addi	r4,r2,12
    2d3c:	e0bff917 	ldw	r2,-28(fp)
    2d40:	1085883a 	add	r2,r2,r2
    2d44:	1085883a 	add	r2,r2,r2
    2d48:	1007883a 	mov	r3,r2
    2d4c:	e0bffc17 	ldw	r2,-16(fp)
    2d50:	1885883a 	add	r2,r3,r2
    2d54:	10800017 	ldw	r2,0(r2)
    2d58:	1007883a 	mov	r3,r2
    2d5c:	e0bff917 	ldw	r2,-28(fp)
    2d60:	10800044 	addi	r2,r2,1
    2d64:	e0bff915 	stw	r2,-28(fp)
    2d68:	2005883a 	mov	r2,r4
    2d6c:	10c00035 	stwio	r3,0(r2)

int alt_up_audio_write_fifo(alt_up_audio_dev *audio, unsigned int *buf, int len, int channel)
{
	unsigned int fifospace;
	int count = 0;
	while ( count < len ) 
    2d70:	e0fff917 	ldw	r3,-28(fp)
    2d74:	e0bffd17 	ldw	r2,-12(fp)
    2d78:	18bfc316 	blt	r3,r2,2c88 <alt_up_audio_write_fifo+0x24>
		{
			// no more space to write
			break;
		}
	}
	return count;
    2d7c:	e0bff917 	ldw	r2,-28(fp)
}
    2d80:	e037883a 	mov	sp,fp
    2d84:	df000017 	ldw	fp,0(sp)
    2d88:	dec00104 	addi	sp,sp,4
    2d8c:	f800283a 	ret

00002d90 <alt_up_audio_read_fifo_head>:

unsigned int alt_up_audio_read_fifo_head(alt_up_audio_dev *audio, int channel)
{
    2d90:	defffc04 	addi	sp,sp,-16
    2d94:	df000315 	stw	fp,12(sp)
    2d98:	df000304 	addi	fp,sp,12
    2d9c:	e13ffd15 	stw	r4,-12(fp)
    2da0:	e17ffe15 	stw	r5,-8(fp)
	return ( (channel == ALT_UP_AUDIO_LEFT) ?  IORD_ALT_UP_AUDIO_LEFTDATA(audio->base) :
    2da4:	e0bffe17 	ldw	r2,-8(fp)
    2da8:	1004c03a 	cmpne	r2,r2,zero
    2dac:	1000061e 	bne	r2,zero,2dc8 <alt_up_audio_read_fifo_head+0x38>
    2db0:	e0bffd17 	ldw	r2,-12(fp)
    2db4:	10800a17 	ldw	r2,40(r2)
    2db8:	10800204 	addi	r2,r2,8
    2dbc:	10800037 	ldwio	r2,0(r2)
    2dc0:	e0bfff15 	stw	r2,-4(fp)
    2dc4:	00000506 	br	2ddc <alt_up_audio_read_fifo_head+0x4c>
    2dc8:	e0bffd17 	ldw	r2,-12(fp)
    2dcc:	10800a17 	ldw	r2,40(r2)
    2dd0:	10800304 	addi	r2,r2,12
    2dd4:	10800037 	ldwio	r2,0(r2)
    2dd8:	e0bfff15 	stw	r2,-4(fp)
    2ddc:	e0bfff17 	ldw	r2,-4(fp)
				IORD_ALT_UP_AUDIO_RIGHTDATA(audio->base) );
}
    2de0:	e037883a 	mov	sp,fp
    2de4:	df000017 	ldw	fp,0(sp)
    2de8:	dec00104 	addi	sp,sp,4
    2dec:	f800283a 	ret

00002df0 <alt_up_audio_write_fifo_head>:

void alt_up_audio_write_fifo_head(alt_up_audio_dev *audio, unsigned int data, int channel)
{
    2df0:	defffc04 	addi	sp,sp,-16
    2df4:	df000315 	stw	fp,12(sp)
    2df8:	df000304 	addi	fp,sp,12
    2dfc:	e13ffd15 	stw	r4,-12(fp)
    2e00:	e17ffe15 	stw	r5,-8(fp)
    2e04:	e1bfff15 	stw	r6,-4(fp)
	if (channel == ALT_UP_AUDIO_LEFT) 
    2e08:	e0bfff17 	ldw	r2,-4(fp)
    2e0c:	1004c03a 	cmpne	r2,r2,zero
    2e10:	1000061e 	bne	r2,zero,2e2c <alt_up_audio_write_fifo_head+0x3c>
		IOWR_ALT_UP_AUDIO_LEFTDATA(audio->base, data);
    2e14:	e0bffd17 	ldw	r2,-12(fp)
    2e18:	10800a17 	ldw	r2,40(r2)
    2e1c:	10800204 	addi	r2,r2,8
    2e20:	e0fffe17 	ldw	r3,-8(fp)
    2e24:	10c00035 	stwio	r3,0(r2)
    2e28:	00000506 	br	2e40 <alt_up_audio_write_fifo_head+0x50>
	else
		IOWR_ALT_UP_AUDIO_RIGHTDATA(audio->base, data);
    2e2c:	e0bffd17 	ldw	r2,-12(fp)
    2e30:	10800a17 	ldw	r2,40(r2)
    2e34:	10800304 	addi	r2,r2,12
    2e38:	e0fffe17 	ldw	r3,-8(fp)
    2e3c:	10c00035 	stwio	r3,0(r2)
}
    2e40:	e037883a 	mov	sp,fp
    2e44:	df000017 	ldw	fp,0(sp)
    2e48:	dec00104 	addi	sp,sp,4
    2e4c:	f800283a 	ret

00002e50 <get_DDRAM_addr>:
 * @sa the datasheet for the LCD Display Controller on the DE2 Board
 * @note the function requires that the input are in the valid range
 *
 **/
unsigned char get_DDRAM_addr(unsigned x_pos, unsigned y_pos)
{
    2e50:	defffc04 	addi	sp,sp,-16
    2e54:	df000315 	stw	fp,12(sp)
    2e58:	df000304 	addi	fp,sp,12
    2e5c:	e13ffe15 	stw	r4,-8(fp)
    2e60:	e17fff15 	stw	r5,-4(fp)
	//assume valid inputs
	unsigned char addr = 0x00000000;
    2e64:	e03ffd05 	stb	zero,-12(fp)
	if (y_pos == 0)
    2e68:	e0bfff17 	ldw	r2,-4(fp)
    2e6c:	1004c03a 	cmpne	r2,r2,zero
    2e70:	1000061e 	bne	r2,zero,2e8c <get_DDRAM_addr+0x3c>
	{
		addr |= x_pos;
    2e74:	e0bffe17 	ldw	r2,-8(fp)
    2e78:	1007883a 	mov	r3,r2
    2e7c:	e0bffd03 	ldbu	r2,-12(fp)
    2e80:	10c4b03a 	or	r2,r2,r3
    2e84:	e0bffd05 	stb	r2,-12(fp)
    2e88:	00000806 	br	2eac <get_DDRAM_addr+0x5c>
	}
	else
	{
		addr |= x_pos;
    2e8c:	e0bffe17 	ldw	r2,-8(fp)
    2e90:	1007883a 	mov	r3,r2
    2e94:	e0bffd03 	ldbu	r2,-12(fp)
    2e98:	10c4b03a 	or	r2,r2,r3
    2e9c:	e0bffd05 	stb	r2,-12(fp)
		addr |= 0x00000040;
    2ea0:	e0bffd03 	ldbu	r2,-12(fp)
    2ea4:	10801014 	ori	r2,r2,64
    2ea8:	e0bffd05 	stb	r2,-12(fp)
	}
	// b_7 is always 1 for DDRAM address, see datasheet
	return (addr | 0x00000080);
    2eac:	e0fffd03 	ldbu	r3,-12(fp)
    2eb0:	00bfe004 	movi	r2,-128
    2eb4:	1884b03a 	or	r2,r3,r2
    2eb8:	10803fcc 	andi	r2,r2,255
}
    2ebc:	e037883a 	mov	sp,fp
    2ec0:	df000017 	ldw	fp,0(sp)
    2ec4:	dec00104 	addi	sp,sp,4
    2ec8:	f800283a 	ret

00002ecc <alt_up_character_lcd_send_cmd>:
 * @param cmd -- the command bits 
 *
 * @return nothing
 **/
void alt_up_character_lcd_send_cmd(alt_up_character_lcd_dev *lcd, unsigned char cmd)
{
    2ecc:	defffd04 	addi	sp,sp,-12
    2ed0:	df000215 	stw	fp,8(sp)
    2ed4:	df000204 	addi	fp,sp,8
    2ed8:	e13ffe15 	stw	r4,-8(fp)
    2edc:	e17fff05 	stb	r5,-4(fp)
 	// NOTE: We use the term Instruction Register and Control Register interchangeably
	IOWR_ALT_UP_CHARACTER_LCD_COMMAND(lcd->base, cmd);
    2ee0:	e0bffe17 	ldw	r2,-8(fp)
    2ee4:	10800a17 	ldw	r2,40(r2)
    2ee8:	e0ffff03 	ldbu	r3,-4(fp)
    2eec:	10c00025 	stbio	r3,0(r2)
}
    2ef0:	e037883a 	mov	sp,fp
    2ef4:	df000017 	ldw	fp,0(sp)
    2ef8:	dec00104 	addi	sp,sp,4
    2efc:	f800283a 	ret

00002f00 <alt_up_character_lcd_init>:
 * file for a detailed description of each function
 */
////////////////////////////////////////////////////////////////////////////

void alt_up_character_lcd_init(alt_up_character_lcd_dev *lcd)
{
    2f00:	defffe04 	addi	sp,sp,-8
    2f04:	df000115 	stw	fp,4(sp)
    2f08:	df000104 	addi	fp,sp,4
    2f0c:	e13fff15 	stw	r4,-4(fp)
	IOWR_ALT_UP_CHARACTER_LCD_COMMAND(lcd->base, ALT_UP_CHARACTER_LCD_COMM_CLEAR_DISPLAY);
    2f10:	e0bfff17 	ldw	r2,-4(fp)
    2f14:	10800a17 	ldw	r2,40(r2)
    2f18:	1007883a 	mov	r3,r2
    2f1c:	00800044 	movi	r2,1
    2f20:	18800025 	stbio	r2,0(r3)
	// register the device 
	// see "Developing Device Drivers for the HAL" in "Nios II Software Developer's Handbook"
}
    2f24:	e037883a 	mov	sp,fp
    2f28:	df000017 	ldw	fp,0(sp)
    2f2c:	dec00104 	addi	sp,sp,4
    2f30:	f800283a 	ret

00002f34 <alt_up_character_lcd_open_dev>:

alt_up_character_lcd_dev* alt_up_character_lcd_open_dev(const char* name)
{
    2f34:	defffc04 	addi	sp,sp,-16
    2f38:	dfc00315 	stw	ra,12(sp)
    2f3c:	df000215 	stw	fp,8(sp)
    2f40:	df000204 	addi	fp,sp,8
    2f44:	e13fff15 	stw	r4,-4(fp)
  // find the device from the device list 
  // (see altera_hal/HAL/inc/priv/alt_file.h 
  // and altera_hal/HAL/src/alt_find_dev.c 
  // for details)
  alt_up_character_lcd_dev *dev = (alt_up_character_lcd_dev*)alt_find_dev(name, &alt_dev_list);
    2f48:	e13fff17 	ldw	r4,-4(fp)
    2f4c:	01400074 	movhi	r5,1
    2f50:	296e9c04 	addi	r5,r5,-17808
    2f54:	00062b80 	call	62b8 <alt_find_dev>
    2f58:	e0bffe15 	stw	r2,-8(fp)

  return dev;
    2f5c:	e0bffe17 	ldw	r2,-8(fp)
}
    2f60:	e037883a 	mov	sp,fp
    2f64:	dfc00117 	ldw	ra,4(sp)
    2f68:	df000017 	ldw	fp,0(sp)
    2f6c:	dec00204 	addi	sp,sp,8
    2f70:	f800283a 	ret

00002f74 <alt_up_character_lcd_write>:

void alt_up_character_lcd_write(alt_up_character_lcd_dev *dev, const char *ptr, unsigned int len)
{
    2f74:	defffb04 	addi	sp,sp,-20
    2f78:	df000415 	stw	fp,16(sp)
    2f7c:	df000404 	addi	fp,sp,16
    2f80:	e13ffd15 	stw	r4,-12(fp)
    2f84:	e17ffe15 	stw	r5,-8(fp)
    2f88:	e1bfff15 	stw	r6,-4(fp)
	unsigned int i;
	for (i = 0; i < len; i++)
    2f8c:	e03ffc15 	stw	zero,-16(fp)
    2f90:	00000f06 	br	2fd0 <alt_up_character_lcd_write+0x5c>
	{
		IOWR_ALT_UP_CHARACTER_LCD_DATA(dev->base, *(ptr+i));
    2f94:	e0bffd17 	ldw	r2,-12(fp)
    2f98:	10800a17 	ldw	r2,40(r2)
    2f9c:	11000044 	addi	r4,r2,1
    2fa0:	e0fffc17 	ldw	r3,-16(fp)
    2fa4:	e0bffe17 	ldw	r2,-8(fp)
    2fa8:	1885883a 	add	r2,r3,r2
    2fac:	10800003 	ldbu	r2,0(r2)
    2fb0:	10c03fcc 	andi	r3,r2,255
    2fb4:	18c0201c 	xori	r3,r3,128
    2fb8:	18ffe004 	addi	r3,r3,-128
    2fbc:	2005883a 	mov	r2,r4
    2fc0:	10c00025 	stbio	r3,0(r2)
}

void alt_up_character_lcd_write(alt_up_character_lcd_dev *dev, const char *ptr, unsigned int len)
{
	unsigned int i;
	for (i = 0; i < len; i++)
    2fc4:	e0bffc17 	ldw	r2,-16(fp)
    2fc8:	10800044 	addi	r2,r2,1
    2fcc:	e0bffc15 	stw	r2,-16(fp)
    2fd0:	e0fffc17 	ldw	r3,-16(fp)
    2fd4:	e0bfff17 	ldw	r2,-4(fp)
    2fd8:	18bfee36 	bltu	r3,r2,2f94 <alt_up_character_lcd_write+0x20>
	{
		IOWR_ALT_UP_CHARACTER_LCD_DATA(dev->base, *(ptr+i));
	}
}
    2fdc:	e037883a 	mov	sp,fp
    2fe0:	df000017 	ldw	fp,0(sp)
    2fe4:	dec00104 	addi	sp,sp,4
    2fe8:	f800283a 	ret

00002fec <alt_up_character_lcd_string>:

void alt_up_character_lcd_string(alt_up_character_lcd_dev *dev, const char *ptr)
{
    2fec:	defffd04 	addi	sp,sp,-12
    2ff0:	df000215 	stw	fp,8(sp)
    2ff4:	df000204 	addi	fp,sp,8
    2ff8:	e13ffe15 	stw	r4,-8(fp)
    2ffc:	e17fff15 	stw	r5,-4(fp)
	while ( *ptr )
    3000:	00000d06 	br	3038 <alt_up_character_lcd_string+0x4c>
	{
		IOWR_ALT_UP_CHARACTER_LCD_DATA(dev->base, *(ptr));
    3004:	e0bffe17 	ldw	r2,-8(fp)
    3008:	10800a17 	ldw	r2,40(r2)
    300c:	11000044 	addi	r4,r2,1
    3010:	e0bfff17 	ldw	r2,-4(fp)
    3014:	10800003 	ldbu	r2,0(r2)
    3018:	10c03fcc 	andi	r3,r2,255
    301c:	18c0201c 	xori	r3,r3,128
    3020:	18ffe004 	addi	r3,r3,-128
    3024:	2005883a 	mov	r2,r4
    3028:	10c00025 	stbio	r3,0(r2)
		++ptr;
    302c:	e0bfff17 	ldw	r2,-4(fp)
    3030:	10800044 	addi	r2,r2,1
    3034:	e0bfff15 	stw	r2,-4(fp)
	}
}

void alt_up_character_lcd_string(alt_up_character_lcd_dev *dev, const char *ptr)
{
	while ( *ptr )
    3038:	e0bfff17 	ldw	r2,-4(fp)
    303c:	10800003 	ldbu	r2,0(r2)
    3040:	10803fcc 	andi	r2,r2,255
    3044:	1080201c 	xori	r2,r2,128
    3048:	10bfe004 	addi	r2,r2,-128
    304c:	1004c03a 	cmpne	r2,r2,zero
    3050:	103fec1e 	bne	r2,zero,3004 <alt_up_character_lcd_string+0x18>
	{
		IOWR_ALT_UP_CHARACTER_LCD_DATA(dev->base, *(ptr));
		++ptr;
	}
}
    3054:	e037883a 	mov	sp,fp
    3058:	df000017 	ldw	fp,0(sp)
    305c:	dec00104 	addi	sp,sp,4
    3060:	f800283a 	ret

00003064 <alt_up_character_lcd_write_fd>:

// this function isn't used, and is included for future upgrades
int alt_up_character_lcd_write_fd(alt_fd *fd, const char *ptr, int len)
{
    3064:	defffb04 	addi	sp,sp,-20
    3068:	dfc00415 	stw	ra,16(sp)
    306c:	df000315 	stw	fp,12(sp)
    3070:	df000304 	addi	fp,sp,12
    3074:	e13ffd15 	stw	r4,-12(fp)
    3078:	e17ffe15 	stw	r5,-8(fp)
    307c:	e1bfff15 	stw	r6,-4(fp)
	alt_up_character_lcd_write( (alt_up_character_lcd_dev *) fd->dev, ptr, (unsigned int) len);
    3080:	e0bffd17 	ldw	r2,-12(fp)
    3084:	10800017 	ldw	r2,0(r2)
    3088:	1009883a 	mov	r4,r2
    308c:	e1bfff17 	ldw	r6,-4(fp)
    3090:	e17ffe17 	ldw	r5,-8(fp)
    3094:	0002f740 	call	2f74 <alt_up_character_lcd_write>
	return 0;
    3098:	0005883a 	mov	r2,zero
}
    309c:	e037883a 	mov	sp,fp
    30a0:	dfc00117 	ldw	ra,4(sp)
    30a4:	df000017 	ldw	fp,0(sp)
    30a8:	dec00204 	addi	sp,sp,8
    30ac:	f800283a 	ret

000030b0 <alt_up_character_lcd_set_cursor_pos>:

int alt_up_character_lcd_set_cursor_pos(alt_up_character_lcd_dev *lcd, unsigned x_pos, 
	 unsigned y_pos)
{
    30b0:	defff904 	addi	sp,sp,-28
    30b4:	dfc00615 	stw	ra,24(sp)
    30b8:	df000515 	stw	fp,20(sp)
    30bc:	df000504 	addi	fp,sp,20
    30c0:	e13ffc15 	stw	r4,-16(fp)
    30c4:	e17ffd15 	stw	r5,-12(fp)
    30c8:	e1bffe15 	stw	r6,-8(fp)
	//boundary check
	if (x_pos > 39 || y_pos > 1 )
    30cc:	e0bffd17 	ldw	r2,-12(fp)
    30d0:	10800a28 	cmpgeui	r2,r2,40
    30d4:	1000031e 	bne	r2,zero,30e4 <alt_up_character_lcd_set_cursor_pos+0x34>
    30d8:	e0bffe17 	ldw	r2,-8(fp)
    30dc:	108000b0 	cmpltui	r2,r2,2
    30e0:	1000031e 	bne	r2,zero,30f0 <alt_up_character_lcd_set_cursor_pos+0x40>
		// invalid argument
		return -1;
    30e4:	00bfffc4 	movi	r2,-1
    30e8:	e0bfff15 	stw	r2,-4(fp)
    30ec:	00000806 	br	3110 <alt_up_character_lcd_set_cursor_pos+0x60>
	// calculate address
	unsigned char addr = get_DDRAM_addr(x_pos, y_pos);
    30f0:	e13ffd17 	ldw	r4,-12(fp)
    30f4:	e17ffe17 	ldw	r5,-8(fp)
    30f8:	0002e500 	call	2e50 <get_DDRAM_addr>
    30fc:	e0bffb05 	stb	r2,-20(fp)
	// set the cursor
	alt_up_character_lcd_send_cmd(lcd, addr);
    3100:	e17ffb03 	ldbu	r5,-20(fp)
    3104:	e13ffc17 	ldw	r4,-16(fp)
    3108:	0002ecc0 	call	2ecc <alt_up_character_lcd_send_cmd>
	return 0;
    310c:	e03fff15 	stw	zero,-4(fp)
    3110:	e0bfff17 	ldw	r2,-4(fp)
}
    3114:	e037883a 	mov	sp,fp
    3118:	dfc00117 	ldw	ra,4(sp)
    311c:	df000017 	ldw	fp,0(sp)
    3120:	dec00204 	addi	sp,sp,8
    3124:	f800283a 	ret

00003128 <alt_up_character_lcd_shift_cursor>:

void alt_up_character_lcd_shift_cursor(alt_up_character_lcd_dev *lcd, int x_right_shift_offset)
{
    3128:	defff904 	addi	sp,sp,-28
    312c:	dfc00615 	stw	ra,24(sp)
    3130:	df000515 	stw	fp,20(sp)
    3134:	df000504 	addi	fp,sp,20
    3138:	e13ffc15 	stw	r4,-16(fp)
    313c:	e17ffd15 	stw	r5,-12(fp)
	if (x_right_shift_offset == 0) 
    3140:	e0bffd17 	ldw	r2,-12(fp)
    3144:	1005003a 	cmpeq	r2,r2,zero
    3148:	10001e1e 	bne	r2,zero,31c4 <alt_up_character_lcd_shift_cursor+0x9c>
		// don't ask me to do nothing 
		return;

	// see shift right or left
	unsigned char shift_cmd = (x_right_shift_offset > 0) ? 
		ALT_UP_CHARACTER_LCD_COMM_CURSOR_SHIFT_RIGHT : ALT_UP_CHARACTER_LCD_COMM_CURSOR_SHIFT_LEFT;
    314c:	e0bffd17 	ldw	r2,-12(fp)
    3150:	10800050 	cmplti	r2,r2,1
    3154:	1000031e 	bne	r2,zero,3164 <alt_up_character_lcd_shift_cursor+0x3c>
    3158:	00800504 	movi	r2,20
    315c:	e0bfff05 	stb	r2,-4(fp)
    3160:	00000206 	br	316c <alt_up_character_lcd_shift_cursor+0x44>
    3164:	00c00404 	movi	r3,16
    3168:	e0ffff05 	stb	r3,-4(fp)
    316c:	e0bfff03 	ldbu	r2,-4(fp)
    3170:	e0bffb45 	stb	r2,-19(fp)
	// see how many to shift
	unsigned char num_offset = (x_right_shift_offset > 0) ? x_right_shift_offset : 
		-x_right_shift_offset;
    3174:	e0fffd17 	ldw	r3,-12(fp)
    3178:	e0fffe15 	stw	r3,-8(fp)
    317c:	e0fffe17 	ldw	r3,-8(fp)
    3180:	1804403a 	cmpge	r2,r3,zero
    3184:	1000031e 	bne	r2,zero,3194 <alt_up_character_lcd_shift_cursor+0x6c>
    3188:	e0bffe17 	ldw	r2,-8(fp)
    318c:	0085c83a 	sub	r2,zero,r2
    3190:	e0bffe15 	stw	r2,-8(fp)
    3194:	e0fffe17 	ldw	r3,-8(fp)
    3198:	e0fffb05 	stb	r3,-20(fp)
	// do the shift
	while (num_offset-- > 0)
    319c:	00000306 	br	31ac <alt_up_character_lcd_shift_cursor+0x84>
		alt_up_character_lcd_send_cmd(lcd, shift_cmd);
    31a0:	e17ffb43 	ldbu	r5,-19(fp)
    31a4:	e13ffc17 	ldw	r4,-16(fp)
    31a8:	0002ecc0 	call	2ecc <alt_up_character_lcd_send_cmd>
		ALT_UP_CHARACTER_LCD_COMM_CURSOR_SHIFT_RIGHT : ALT_UP_CHARACTER_LCD_COMM_CURSOR_SHIFT_LEFT;
	// see how many to shift
	unsigned char num_offset = (x_right_shift_offset > 0) ? x_right_shift_offset : 
		-x_right_shift_offset;
	// do the shift
	while (num_offset-- > 0)
    31ac:	e0bffb03 	ldbu	r2,-20(fp)
    31b0:	10bfffc4 	addi	r2,r2,-1
    31b4:	e0bffb05 	stb	r2,-20(fp)
    31b8:	e0bffb03 	ldbu	r2,-20(fp)
    31bc:	10803fd8 	cmpnei	r2,r2,255
    31c0:	103ff71e 	bne	r2,zero,31a0 <alt_up_character_lcd_shift_cursor+0x78>
		alt_up_character_lcd_send_cmd(lcd, shift_cmd);
}
    31c4:	e037883a 	mov	sp,fp
    31c8:	dfc00117 	ldw	ra,4(sp)
    31cc:	df000017 	ldw	fp,0(sp)
    31d0:	dec00204 	addi	sp,sp,8
    31d4:	f800283a 	ret

000031d8 <alt_up_character_lcd_shift_display>:

void alt_up_character_lcd_shift_display(alt_up_character_lcd_dev *lcd, int x_right_shift_offset)
{
    31d8:	defff904 	addi	sp,sp,-28
    31dc:	dfc00615 	stw	ra,24(sp)
    31e0:	df000515 	stw	fp,20(sp)
    31e4:	df000504 	addi	fp,sp,20
    31e8:	e13ffc15 	stw	r4,-16(fp)
    31ec:	e17ffd15 	stw	r5,-12(fp)
	if (x_right_shift_offset == 0) 
    31f0:	e0bffd17 	ldw	r2,-12(fp)
    31f4:	1005003a 	cmpeq	r2,r2,zero
    31f8:	10001e1e 	bne	r2,zero,3274 <alt_up_character_lcd_shift_display+0x9c>
		// don't ask me to do nothing 
		return;

	// see shift right or left
	unsigned char shift_cmd = (x_right_shift_offset > 0) ? 
		ALT_UP_CHARACTER_LCD_COMM_DISPLAY_SHIFT_RIGHT : ALT_UP_CHARACTER_LCD_COMM_DISPLAY_SHIFT_LEFT;
    31fc:	e0bffd17 	ldw	r2,-12(fp)
    3200:	10800050 	cmplti	r2,r2,1
    3204:	1000031e 	bne	r2,zero,3214 <alt_up_character_lcd_shift_display+0x3c>
    3208:	00800704 	movi	r2,28
    320c:	e0bfff05 	stb	r2,-4(fp)
    3210:	00000206 	br	321c <alt_up_character_lcd_shift_display+0x44>
    3214:	00c00604 	movi	r3,24
    3218:	e0ffff05 	stb	r3,-4(fp)
    321c:	e0bfff03 	ldbu	r2,-4(fp)
    3220:	e0bffb45 	stb	r2,-19(fp)
	// see how many to shift
	unsigned char num_offset = (x_right_shift_offset > 0) ? x_right_shift_offset : 
		-x_right_shift_offset;
    3224:	e0fffd17 	ldw	r3,-12(fp)
    3228:	e0fffe15 	stw	r3,-8(fp)
    322c:	e0fffe17 	ldw	r3,-8(fp)
    3230:	1804403a 	cmpge	r2,r3,zero
    3234:	1000031e 	bne	r2,zero,3244 <alt_up_character_lcd_shift_display+0x6c>
    3238:	e0bffe17 	ldw	r2,-8(fp)
    323c:	0085c83a 	sub	r2,zero,r2
    3240:	e0bffe15 	stw	r2,-8(fp)
    3244:	e0fffe17 	ldw	r3,-8(fp)
    3248:	e0fffb05 	stb	r3,-20(fp)
	// do the shift
	while (num_offset-- > 0)
    324c:	00000306 	br	325c <alt_up_character_lcd_shift_display+0x84>
		alt_up_character_lcd_send_cmd(lcd, shift_cmd);
    3250:	e17ffb43 	ldbu	r5,-19(fp)
    3254:	e13ffc17 	ldw	r4,-16(fp)
    3258:	0002ecc0 	call	2ecc <alt_up_character_lcd_send_cmd>
		ALT_UP_CHARACTER_LCD_COMM_DISPLAY_SHIFT_RIGHT : ALT_UP_CHARACTER_LCD_COMM_DISPLAY_SHIFT_LEFT;
	// see how many to shift
	unsigned char num_offset = (x_right_shift_offset > 0) ? x_right_shift_offset : 
		-x_right_shift_offset;
	// do the shift
	while (num_offset-- > 0)
    325c:	e0bffb03 	ldbu	r2,-20(fp)
    3260:	10bfffc4 	addi	r2,r2,-1
    3264:	e0bffb05 	stb	r2,-20(fp)
    3268:	e0bffb03 	ldbu	r2,-20(fp)
    326c:	10803fd8 	cmpnei	r2,r2,255
    3270:	103ff71e 	bne	r2,zero,3250 <alt_up_character_lcd_shift_display+0x78>
		alt_up_character_lcd_send_cmd(lcd, shift_cmd);
}
    3274:	e037883a 	mov	sp,fp
    3278:	dfc00117 	ldw	ra,4(sp)
    327c:	df000017 	ldw	fp,0(sp)
    3280:	dec00204 	addi	sp,sp,8
    3284:	f800283a 	ret

00003288 <alt_up_character_lcd_erase_pos>:

int alt_up_character_lcd_erase_pos(alt_up_character_lcd_dev *lcd, unsigned x_pos, unsigned y_pos)
{
    3288:	defff904 	addi	sp,sp,-28
    328c:	dfc00615 	stw	ra,24(sp)
    3290:	df000515 	stw	fp,20(sp)
    3294:	df000504 	addi	fp,sp,20
    3298:	e13ffc15 	stw	r4,-16(fp)
    329c:	e17ffd15 	stw	r5,-12(fp)
    32a0:	e1bffe15 	stw	r6,-8(fp)
	// boundary check
	if (x_pos > 39 || y_pos > 1 )
    32a4:	e0bffd17 	ldw	r2,-12(fp)
    32a8:	10800a28 	cmpgeui	r2,r2,40
    32ac:	1000031e 	bne	r2,zero,32bc <alt_up_character_lcd_erase_pos+0x34>
    32b0:	e0bffe17 	ldw	r2,-8(fp)
    32b4:	108000b0 	cmpltui	r2,r2,2
    32b8:	1000031e 	bne	r2,zero,32c8 <alt_up_character_lcd_erase_pos+0x40>
		return -1;
    32bc:	00bfffc4 	movi	r2,-1
    32c0:	e0bfff15 	stw	r2,-4(fp)
    32c4:	00000e06 	br	3300 <alt_up_character_lcd_erase_pos+0x78>

	// get address
	unsigned char addr = get_DDRAM_addr(x_pos, y_pos);
    32c8:	e13ffd17 	ldw	r4,-12(fp)
    32cc:	e17ffe17 	ldw	r5,-8(fp)
    32d0:	0002e500 	call	2e50 <get_DDRAM_addr>
    32d4:	e0bffb05 	stb	r2,-20(fp)
	// set cursor to dest point
	alt_up_character_lcd_send_cmd(lcd, addr);
    32d8:	e17ffb03 	ldbu	r5,-20(fp)
    32dc:	e13ffc17 	ldw	r4,-16(fp)
    32e0:	0002ecc0 	call	2ecc <alt_up_character_lcd_send_cmd>
	//send an empty char as erase (refer to the Character Generator ROM part of the Datasheet)
	IOWR_ALT_UP_CHARACTER_LCD_DATA(lcd->base, (0x00000002) );
    32e4:	e0bffc17 	ldw	r2,-16(fp)
    32e8:	10800a17 	ldw	r2,40(r2)
    32ec:	10800044 	addi	r2,r2,1
    32f0:	1007883a 	mov	r3,r2
    32f4:	00800084 	movi	r2,2
    32f8:	18800025 	stbio	r2,0(r3)
	return 0;
    32fc:	e03fff15 	stw	zero,-4(fp)
    3300:	e0bfff17 	ldw	r2,-4(fp)
}
    3304:	e037883a 	mov	sp,fp
    3308:	dfc00117 	ldw	ra,4(sp)
    330c:	df000017 	ldw	fp,0(sp)
    3310:	dec00204 	addi	sp,sp,8
    3314:	f800283a 	ret

00003318 <alt_up_character_lcd_cursor_off>:

void alt_up_character_lcd_cursor_off(alt_up_character_lcd_dev *lcd)
{
    3318:	defffd04 	addi	sp,sp,-12
    331c:	dfc00215 	stw	ra,8(sp)
    3320:	df000115 	stw	fp,4(sp)
    3324:	df000104 	addi	fp,sp,4
    3328:	e13fff15 	stw	r4,-4(fp)
	alt_up_character_lcd_send_cmd(lcd, ALT_UP_CHARACTER_LCD_COMM_CURSOR_OFF);
    332c:	e13fff17 	ldw	r4,-4(fp)
    3330:	01400304 	movi	r5,12
    3334:	0002ecc0 	call	2ecc <alt_up_character_lcd_send_cmd>
}
    3338:	e037883a 	mov	sp,fp
    333c:	dfc00117 	ldw	ra,4(sp)
    3340:	df000017 	ldw	fp,0(sp)
    3344:	dec00204 	addi	sp,sp,8
    3348:	f800283a 	ret

0000334c <alt_up_character_lcd_cursor_blink_on>:

void alt_up_character_lcd_cursor_blink_on(alt_up_character_lcd_dev *lcd)
{
    334c:	defffd04 	addi	sp,sp,-12
    3350:	dfc00215 	stw	ra,8(sp)
    3354:	df000115 	stw	fp,4(sp)
    3358:	df000104 	addi	fp,sp,4
    335c:	e13fff15 	stw	r4,-4(fp)
	alt_up_character_lcd_send_cmd(lcd, ALT_UP_CHARACTER_LCD_COMM_CURSOR_BLINK_ON);
    3360:	e13fff17 	ldw	r4,-4(fp)
    3364:	014003c4 	movi	r5,15
    3368:	0002ecc0 	call	2ecc <alt_up_character_lcd_send_cmd>
}
    336c:	e037883a 	mov	sp,fp
    3370:	dfc00117 	ldw	ra,4(sp)
    3374:	df000017 	ldw	fp,0(sp)
    3378:	dec00204 	addi	sp,sp,8
    337c:	f800283a 	ret

00003380 <alt_up_ethernet_init>:
#include "altera_up_avalon_ethernet.h"
#include "altera_up_avalon_ethernet_regs.h"
#include "altera_up_avalon_ethernet_low_level_driver.h"

void alt_up_ethernet_init(alt_up_ethernet_dev *ethernet)
{
    3380:	defffb04 	addi	sp,sp,-20
    3384:	dfc00415 	stw	ra,16(sp)
    3388:	df000315 	stw	fp,12(sp)
    338c:	df000304 	addi	fp,sp,12
    3390:	e13fff15 	stw	r4,-4(fp)
	// initialize the device
	unsigned int base = ethernet->base;
    3394:	e0bfff17 	ldw	r2,-4(fp)
    3398:	10800a17 	ldw	r2,40(r2)
    339c:	e0bffe15 	stw	r2,-8(fp)
	int i;

	// Power on the internal PHY
	alt_up_ethernet_reg_write( base, ALT_UP_ETHERNET_GPR, 0x00 );
    33a0:	e13ffe17 	ldw	r4,-8(fp)
    33a4:	014007c4 	movi	r5,31
    33a8:	000d883a 	mov	r6,zero
    33ac:	000350c0 	call	350c <alt_up_ethernet_reg_write>

	// Software Reset of the Ethernet chip
	alt_up_ethernet_reg_write( base, ALT_UP_ETHERNET_NCR, 0x01 );
    33b0:	e13ffe17 	ldw	r4,-8(fp)
    33b4:	000b883a 	mov	r5,zero
    33b8:	01800044 	movi	r6,1
    33bc:	000350c0 	call	350c <alt_up_ethernet_reg_write>
	usleep(10);
    33c0:	01000284 	movi	r4,10
    33c4:	00069800 	call	6980 <usleep>
	alt_up_ethernet_reg_write( base, ALT_UP_ETHERNET_NCR, 0x00 );
    33c8:	e13ffe17 	ldw	r4,-8(fp)
    33cc:	000b883a 	mov	r5,zero
    33d0:	000d883a 	mov	r6,zero
    33d4:	000350c0 	call	350c <alt_up_ethernet_reg_write>
	usleep(1);
    33d8:	01000044 	movi	r4,1
    33dc:	00069800 	call	6980 <usleep>

	// Initialize the MAC Address
	for (i = 0; i < 6; i++) 
    33e0:	e03ffd15 	stw	zero,-12(fp)
    33e4:	00000e06 	br	3420 <alt_up_ethernet_init+0xa0>
		alt_up_ethernet_reg_write( base, ALT_UP_ETHERNET_PAR + i, ethernet->mac_addr[i] );
    33e8:	e0bffd17 	ldw	r2,-12(fp)
    33ec:	10800404 	addi	r2,r2,16
    33f0:	100b883a 	mov	r5,r2
    33f4:	e0fffd17 	ldw	r3,-12(fp)
    33f8:	e0bfff17 	ldw	r2,-4(fp)
    33fc:	1885883a 	add	r2,r3,r2
    3400:	10800d04 	addi	r2,r2,52
    3404:	10800003 	ldbu	r2,0(r2)
    3408:	11803fcc 	andi	r6,r2,255
    340c:	e13ffe17 	ldw	r4,-8(fp)
    3410:	000350c0 	call	350c <alt_up_ethernet_reg_write>
	usleep(10);
	alt_up_ethernet_reg_write( base, ALT_UP_ETHERNET_NCR, 0x00 );
	usleep(1);

	// Initialize the MAC Address
	for (i = 0; i < 6; i++) 
    3414:	e0bffd17 	ldw	r2,-12(fp)
    3418:	10800044 	addi	r2,r2,1
    341c:	e0bffd15 	stw	r2,-12(fp)
    3420:	e0bffd17 	ldw	r2,-12(fp)
    3424:	10800190 	cmplti	r2,r2,6
    3428:	103fef1e 	bne	r2,zero,33e8 <alt_up_ethernet_init+0x68>
		alt_up_ethernet_reg_write( base, ALT_UP_ETHERNET_PAR + i, ethernet->mac_addr[i] );

	/* clear any pending interrupt */
	alt_up_ethernet_reg_write( base, ALT_UP_ETHERNET_ISR,  0x3F );
    342c:	e13ffe17 	ldw	r4,-8(fp)
    3430:	01403f84 	movi	r5,254
    3434:	01800fc4 	movi	r6,63
    3438:	000350c0 	call	350c <alt_up_ethernet_reg_write>
	alt_up_ethernet_reg_write( base, ALT_UP_ETHERNET_NSR,  0x2C );
    343c:	e13ffe17 	ldw	r4,-8(fp)
    3440:	01400044 	movi	r5,1
    3444:	01800b04 	movi	r6,44
    3448:	000350c0 	call	350c <alt_up_ethernet_reg_write>

	/* set PAR bit, don't enable interrupts (do that with the set_interrupts() function */
	alt_up_ethernet_reg_write( base, ALT_UP_ETHERNET_IMR, 0x80 );
    344c:	e13ffe17 	ldw	r4,-8(fp)
    3450:	01403fc4 	movi	r5,255
    3454:	01802004 	movi	r6,128
    3458:	000350c0 	call	350c <alt_up_ethernet_reg_write>

	/* enable RX (Broadcast/ ALL_MULTICAST) */
	alt_up_ethernet_reg_write( base, ALT_UP_ETHERNET_RCR, 0x39 );
    345c:	e13ffe17 	ldw	r4,-8(fp)
    3460:	01400144 	movi	r5,5
    3464:	01800e44 	movi	r6,57
    3468:	000350c0 	call	350c <alt_up_ethernet_reg_write>

	alt_up_ethernet_reg_write( base, ALT_UP_ETHERNET_ETXCSR, 0x03 );
    346c:	e13ffe17 	ldw	r4,-8(fp)
    3470:	01400c04 	movi	r5,48
    3474:	018000c4 	movi	r6,3
    3478:	000350c0 	call	350c <alt_up_ethernet_reg_write>

	return;
}
    347c:	e037883a 	mov	sp,fp
    3480:	dfc00117 	ldw	ra,4(sp)
    3484:	df000017 	ldw	fp,0(sp)
    3488:	dec00204 	addi	sp,sp,8
    348c:	f800283a 	ret

00003490 <alt_up_ethernet_open_dev>:

alt_up_ethernet_dev* alt_up_ethernet_open_dev(const char* name)
{
    3490:	defffc04 	addi	sp,sp,-16
    3494:	dfc00315 	stw	ra,12(sp)
    3498:	df000215 	stw	fp,8(sp)
    349c:	df000204 	addi	fp,sp,8
    34a0:	e13fff15 	stw	r4,-4(fp)
  // find the device from the device list 
  // (see altera_hal/HAL/inc/priv/alt_file.h 
  // and altera_hal/HAL/src/alt_find_dev.c 
  // for details)
  alt_up_ethernet_dev * dev = (alt_up_ethernet_dev *) alt_find_dev( name, &alt_dev_list );
    34a4:	e13fff17 	ldw	r4,-4(fp)
    34a8:	01400074 	movhi	r5,1
    34ac:	296e9c04 	addi	r5,r5,-17808
    34b0:	00062b80 	call	62b8 <alt_find_dev>
    34b4:	e0bffe15 	stw	r2,-8(fp)

  return dev;
    34b8:	e0bffe17 	ldw	r2,-8(fp)
}
    34bc:	e037883a 	mov	sp,fp
    34c0:	dfc00117 	ldw	ra,4(sp)
    34c4:	df000017 	ldw	fp,0(sp)
    34c8:	dec00204 	addi	sp,sp,8
    34cc:	f800283a 	ret

000034d0 <alt_up_ethernet_reg_read>:
#include "altera_up_avalon_ethernet_low_level_driver.h"
#include "altera_up_avalon_ethernet_regs.h"
#include <unistd.h>

unsigned int alt_up_ethernet_reg_read(unsigned int base, unsigned int reg)
{
    34d0:	defffd04 	addi	sp,sp,-12
    34d4:	df000215 	stw	fp,8(sp)
    34d8:	df000204 	addi	fp,sp,8
    34dc:	e13ffe15 	stw	r4,-8(fp)
    34e0:	e17fff15 	stw	r5,-4(fp)
	IOWR_ALTERA_UP_AVALON_ETHERNET_INDEX(base, reg);
    34e4:	e0bffe17 	ldw	r2,-8(fp)
    34e8:	e0ffff17 	ldw	r3,-4(fp)
    34ec:	10c00035 	stwio	r3,0(r2)
	return IORD_ALTERA_UP_AVALON_ETHERNET_DATA(base);
    34f0:	e0bffe17 	ldw	r2,-8(fp)
    34f4:	10800104 	addi	r2,r2,4
    34f8:	10800037 	ldwio	r2,0(r2)
}
    34fc:	e037883a 	mov	sp,fp
    3500:	df000017 	ldw	fp,0(sp)
    3504:	dec00104 	addi	sp,sp,4
    3508:	f800283a 	ret

0000350c <alt_up_ethernet_reg_write>:

void alt_up_ethernet_reg_write(unsigned int base, unsigned int reg, unsigned int data)
{
    350c:	defffc04 	addi	sp,sp,-16
    3510:	df000315 	stw	fp,12(sp)
    3514:	df000304 	addi	fp,sp,12
    3518:	e13ffd15 	stw	r4,-12(fp)
    351c:	e17ffe15 	stw	r5,-8(fp)
    3520:	e1bfff15 	stw	r6,-4(fp)
	IOWR_ALTERA_UP_AVALON_ETHERNET_INDEX(base, reg);
    3524:	e0bffd17 	ldw	r2,-12(fp)
    3528:	e0fffe17 	ldw	r3,-8(fp)
    352c:	10c00035 	stwio	r3,0(r2)
	IOWR_ALTERA_UP_AVALON_ETHERNET_DATA(base, data);
    3530:	e0bffd17 	ldw	r2,-12(fp)
    3534:	10800104 	addi	r2,r2,4
    3538:	e0ffff17 	ldw	r3,-4(fp)
    353c:	10c00035 	stwio	r3,0(r2)
}
    3540:	e037883a 	mov	sp,fp
    3544:	df000017 	ldw	fp,0(sp)
    3548:	dec00104 	addi	sp,sp,4
    354c:	f800283a 	ret

00003550 <alt_up_ethernet_phy_reg_read>:

unsigned int alt_up_ethernet_phy_reg_read (unsigned int base, unsigned int reg)
{
    3550:	defffa04 	addi	sp,sp,-24
    3554:	dfc00515 	stw	ra,20(sp)
    3558:	df000415 	stw	fp,16(sp)
    355c:	df000404 	addi	fp,sp,16
    3560:	e13ffe15 	stw	r4,-8(fp)
    3564:	e17fff15 	stw	r5,-4(fp)
	unsigned int result = 0;
    3568:	e03ffd15 	stw	zero,-12(fp)
	unsigned int timeout = 0;
    356c:	e03ffc15 	stw	zero,-16(fp)

	/* set PHY register address into EPAR REG. 0CH */
	alt_up_ethernet_reg_write(base, ALT_UP_ETHERNET_EPAR, reg | 0x40);				/* PHY register address setting, and DM9000_PHY offset = 0x40 */
    3570:	e0bfff17 	ldw	r2,-4(fp)
    3574:	11801014 	ori	r6,r2,64
    3578:	e13ffe17 	ldw	r4,-8(fp)
    357c:	01400304 	movi	r5,12
    3580:	000350c0 	call	350c <alt_up_ethernet_reg_write>

	/* issue PHY + READ command = 0xC into EPCR REG. 0BH */
	alt_up_ethernet_reg_write(base, ALT_UP_ETHERNET_EPCR, 0x0C);					/* issue PHY + READ command */
    3584:	e13ffe17 	ldw	r4,-8(fp)
    3588:	014002c4 	movi	r5,11
    358c:	01800304 	movi	r6,12
    3590:	000350c0 	call	350c <alt_up_ethernet_reg_write>
	do {
		usleep(1);
    3594:	01000044 	movi	r4,1
    3598:	00069800 	call	6980 <usleep>
		timeout++;
    359c:	e0bffc17 	ldw	r2,-16(fp)
    35a0:	10800044 	addi	r2,r2,1
    35a4:	e0bffc15 	stw	r2,-16(fp)
	} while ((timeout < 50) && (alt_up_ethernet_reg_read(base, ALT_UP_ETHERNET_EPCR) & 0x01));
    35a8:	e0bffc17 	ldw	r2,-16(fp)
    35ac:	10800ca8 	cmpgeui	r2,r2,50
    35b0:	1000071e 	bne	r2,zero,35d0 <alt_up_ethernet_phy_reg_read+0x80>
    35b4:	e13ffe17 	ldw	r4,-8(fp)
    35b8:	014002c4 	movi	r5,11
    35bc:	00034d00 	call	34d0 <alt_up_ethernet_reg_read>
    35c0:	1080004c 	andi	r2,r2,1
    35c4:	10803fcc 	andi	r2,r2,255
    35c8:	1004c03a 	cmpne	r2,r2,zero
    35cc:	103ff11e 	bne	r2,zero,3594 <alt_up_ethernet_phy_reg_read+0x44>
	
	usleep(1);
    35d0:	01000044 	movi	r4,1
    35d4:	00069800 	call	6980 <usleep>
	alt_up_ethernet_reg_write(base, ALT_UP_ETHERNET_EPCR, 0x08);					/* clear PHY command */
    35d8:	e13ffe17 	ldw	r4,-8(fp)
    35dc:	014002c4 	movi	r5,11
    35e0:	01800204 	movi	r6,8
    35e4:	000350c0 	call	350c <alt_up_ethernet_reg_write>

	/* read PHY data from EPDR REG. 0EH & REG. 0DH */
	result = (alt_up_ethernet_reg_read(base, ALT_UP_ETHERNET_EPDRH) << 8);			/* PHY data high_byte */
    35e8:	e13ffe17 	ldw	r4,-8(fp)
    35ec:	01400384 	movi	r5,14
    35f0:	00034d00 	call	34d0 <alt_up_ethernet_reg_read>
    35f4:	1004923a 	slli	r2,r2,8
    35f8:	e0bffd15 	stw	r2,-12(fp)
	result |= alt_up_ethernet_reg_read(base, ALT_UP_ETHERNET_EPDRL);				/* PHY data low_byte */
    35fc:	e13ffe17 	ldw	r4,-8(fp)
    3600:	01400344 	movi	r5,13
    3604:	00034d00 	call	34d0 <alt_up_ethernet_reg_read>
    3608:	1007883a 	mov	r3,r2
    360c:	e0bffd17 	ldw	r2,-12(fp)
    3610:	10c4b03a 	or	r2,r2,r3
    3614:	e0bffd15 	stw	r2,-12(fp)

	return result;
    3618:	e0bffd17 	ldw	r2,-12(fp)
}
    361c:	e037883a 	mov	sp,fp
    3620:	dfc00117 	ldw	ra,4(sp)
    3624:	df000017 	ldw	fp,0(sp)
    3628:	dec00204 	addi	sp,sp,8
    362c:	f800283a 	ret

00003630 <alt_up_ethernet_phy_reg_write>:

void alt_up_ethernet_phy_reg_write (unsigned int base, unsigned int reg, unsigned int data)
{ 
    3630:	defffa04 	addi	sp,sp,-24
    3634:	dfc00515 	stw	ra,20(sp)
    3638:	df000415 	stw	fp,16(sp)
    363c:	df000404 	addi	fp,sp,16
    3640:	e13ffd15 	stw	r4,-12(fp)
    3644:	e17ffe15 	stw	r5,-8(fp)
    3648:	e1bfff15 	stw	r6,-4(fp)
	unsigned int timeout = 0;
    364c:	e03ffc15 	stw	zero,-16(fp)
	
	/* set PHY register address into EPAR REG. 0CH */
	alt_up_ethernet_reg_write(base, ALT_UP_ETHERNET_EPAR, reg | 0x40);				/* PHY register address setting, and DM9000_PHY offset = 0x40 */
    3650:	e0bffe17 	ldw	r2,-8(fp)
    3654:	11801014 	ori	r6,r2,64
    3658:	e13ffd17 	ldw	r4,-12(fp)
    365c:	01400304 	movi	r5,12
    3660:	000350c0 	call	350c <alt_up_ethernet_reg_write>

	/* fill PHY WRITE data into EPDR REG. 0EH & REG. 0DH */
	alt_up_ethernet_reg_write(base, ALT_UP_ETHERNET_EPDRH, ((data >> 8) & 0xFF));	/* PHY data high_byte */
    3664:	e0bfff17 	ldw	r2,-4(fp)
    3668:	1004d23a 	srli	r2,r2,8
    366c:	11803fcc 	andi	r6,r2,255
    3670:	e13ffd17 	ldw	r4,-12(fp)
    3674:	01400384 	movi	r5,14
    3678:	000350c0 	call	350c <alt_up_ethernet_reg_write>
	alt_up_ethernet_reg_write(base, ALT_UP_ETHERNET_EPDRL, data & 0xFF);			/* PHY data low_byte */
    367c:	e0bfff17 	ldw	r2,-4(fp)
    3680:	11803fcc 	andi	r6,r2,255
    3684:	e13ffd17 	ldw	r4,-12(fp)
    3688:	01400344 	movi	r5,13
    368c:	000350c0 	call	350c <alt_up_ethernet_reg_write>

	/* issue PHY + WRITE command = 0xA into EPCR REG. 0BH */
	alt_up_ethernet_reg_write(base, ALT_UP_ETHERNET_EPCR, 0x0A);					/* issue PHY + WRITE command */
    3690:	e13ffd17 	ldw	r4,-12(fp)
    3694:	014002c4 	movi	r5,11
    3698:	01800284 	movi	r6,10
    369c:	000350c0 	call	350c <alt_up_ethernet_reg_write>
	do {
		usleep(1);
    36a0:	01000044 	movi	r4,1
    36a4:	00069800 	call	6980 <usleep>
		timeout++;
    36a8:	e0bffc17 	ldw	r2,-16(fp)
    36ac:	10800044 	addi	r2,r2,1
    36b0:	e0bffc15 	stw	r2,-16(fp)
	} while ((timeout < 50) && (alt_up_ethernet_reg_read(base, ALT_UP_ETHERNET_EPCR) & 0x01));
    36b4:	e0bffc17 	ldw	r2,-16(fp)
    36b8:	10800ca8 	cmpgeui	r2,r2,50
    36bc:	1000071e 	bne	r2,zero,36dc <alt_up_ethernet_phy_reg_write+0xac>
    36c0:	e13ffd17 	ldw	r4,-12(fp)
    36c4:	014002c4 	movi	r5,11
    36c8:	00034d00 	call	34d0 <alt_up_ethernet_reg_read>
    36cc:	1080004c 	andi	r2,r2,1
    36d0:	10803fcc 	andi	r2,r2,255
    36d4:	1004c03a 	cmpne	r2,r2,zero
    36d8:	103ff11e 	bne	r2,zero,36a0 <alt_up_ethernet_phy_reg_write+0x70>
	
	usleep(1);
    36dc:	01000044 	movi	r4,1
    36e0:	00069800 	call	6980 <usleep>
	
	alt_up_ethernet_reg_write(base, ALT_UP_ETHERNET_EPCR, 0x08);					/* clear PHY command */
    36e4:	e13ffd17 	ldw	r4,-12(fp)
    36e8:	014002c4 	movi	r5,11
    36ec:	01800204 	movi	r6,8
    36f0:	000350c0 	call	350c <alt_up_ethernet_reg_write>
}
    36f4:	e037883a 	mov	sp,fp
    36f8:	dfc00117 	ldw	ra,4(sp)
    36fc:	df000017 	ldw	fp,0(sp)
    3700:	dec00204 	addi	sp,sp,8
    3704:	f800283a 	ret

00003708 <alt_up_irda_enable_read_interrupt>:
#include "altera_up_avalon_irda.h"
#include "altera_up_avalon_irda_regs.h"


void alt_up_irda_enable_read_interrupt(alt_up_irda_dev *irda)
{
    3708:	defffd04 	addi	sp,sp,-12
    370c:	df000215 	stw	fp,8(sp)
    3710:	df000204 	addi	fp,sp,8
    3714:	e13fff15 	stw	r4,-4(fp)
	alt_u32 ctrl_reg;
	ctrl_reg = IORD_ALT_UP_IRDA_CONTROL(irda->base); 
    3718:	e0bfff17 	ldw	r2,-4(fp)
    371c:	10800a17 	ldw	r2,40(r2)
    3720:	10800104 	addi	r2,r2,4
    3724:	10800037 	ldwio	r2,0(r2)
    3728:	e0bffe15 	stw	r2,-8(fp)
	// set RE to 1 while maintaining other bits the same
	ctrl_reg |= ALT_UP_IRDA_CONTROL_RE_MSK;
    372c:	e0bffe17 	ldw	r2,-8(fp)
    3730:	10800054 	ori	r2,r2,1
    3734:	e0bffe15 	stw	r2,-8(fp)
	IOWR_ALT_UP_IRDA_CONTROL(irda->base, ctrl_reg);
    3738:	e0bfff17 	ldw	r2,-4(fp)
    373c:	10800a17 	ldw	r2,40(r2)
    3740:	10800104 	addi	r2,r2,4
    3744:	e0fffe17 	ldw	r3,-8(fp)
    3748:	10c00035 	stwio	r3,0(r2)
}
    374c:	e037883a 	mov	sp,fp
    3750:	df000017 	ldw	fp,0(sp)
    3754:	dec00104 	addi	sp,sp,4
    3758:	f800283a 	ret

0000375c <alt_up_irda_disable_read_interrupt>:

void alt_up_irda_disable_read_interrupt(alt_up_irda_dev *irda)
{
    375c:	defffd04 	addi	sp,sp,-12
    3760:	df000215 	stw	fp,8(sp)
    3764:	df000204 	addi	fp,sp,8
    3768:	e13fff15 	stw	r4,-4(fp)
	alt_u32 ctrl_reg;
	ctrl_reg = IORD_ALT_UP_IRDA_CONTROL(irda->base); 
    376c:	e0bfff17 	ldw	r2,-4(fp)
    3770:	10800a17 	ldw	r2,40(r2)
    3774:	10800104 	addi	r2,r2,4
    3778:	10800037 	ldwio	r2,0(r2)
    377c:	e0bffe15 	stw	r2,-8(fp)
	// set RE to 0 while maintaining other bits the same
	ctrl_reg &= ~ALT_UP_IRDA_CONTROL_RE_MSK;
    3780:	e0fffe17 	ldw	r3,-8(fp)
    3784:	00bfff84 	movi	r2,-2
    3788:	1884703a 	and	r2,r3,r2
    378c:	e0bffe15 	stw	r2,-8(fp)
	IOWR_ALT_UP_IRDA_CONTROL(irda->base, ctrl_reg);
    3790:	e0bfff17 	ldw	r2,-4(fp)
    3794:	10800a17 	ldw	r2,40(r2)
    3798:	10800104 	addi	r2,r2,4
    379c:	e0fffe17 	ldw	r3,-8(fp)
    37a0:	10c00035 	stwio	r3,0(r2)
}
    37a4:	e037883a 	mov	sp,fp
    37a8:	df000017 	ldw	fp,0(sp)
    37ac:	dec00104 	addi	sp,sp,4
    37b0:	f800283a 	ret

000037b4 <alt_up_irda_get_used_space_in_read_FIFO>:

unsigned alt_up_irda_get_used_space_in_read_FIFO(alt_up_irda_dev *irda)
{
    37b4:	defffd04 	addi	sp,sp,-12
    37b8:	df000215 	stw	fp,8(sp)
    37bc:	df000204 	addi	fp,sp,8
    37c0:	e13fff15 	stw	r4,-4(fp)
	alt_u16 ravail = 0;
    37c4:	e03ffe0d 	sth	zero,-8(fp)
	// we can only read the 16 bits for RAVAIL --- a read of DATA will discard the data
//	ravail = IORD_16DIRECT(IOADDR_ALT_UP_IRDA_DATA(irda->base), 2); 
//	return ravail;
	ravail = IORD_ALT_UP_IRDA_RAVAIL(irda->base); 
    37c8:	e0bfff17 	ldw	r2,-4(fp)
    37cc:	10800a17 	ldw	r2,40(r2)
    37d0:	10800084 	addi	r2,r2,2
    37d4:	1080002b 	ldhuio	r2,0(r2)
    37d8:	e0bffe0d 	sth	r2,-8(fp)
	return (ravail & ALT_UP_IRDA_RAVAIL_MSK) >> ALT_UP_IRDA_RAVAIL_OFST;
    37dc:	e0bffe0b 	ldhu	r2,-8(fp)
}
    37e0:	e037883a 	mov	sp,fp
    37e4:	df000017 	ldw	fp,0(sp)
    37e8:	dec00104 	addi	sp,sp,4
    37ec:	f800283a 	ret

000037f0 <alt_up_irda_get_available_space_in_write_FIFO>:

unsigned alt_up_irda_get_available_space_in_write_FIFO(alt_up_irda_dev *irda)
{
    37f0:	defffd04 	addi	sp,sp,-12
    37f4:	df000215 	stw	fp,8(sp)
    37f8:	df000204 	addi	fp,sp,8
    37fc:	e13fff15 	stw	r4,-4(fp)
	alt_u32 ctrl_reg;
	ctrl_reg = IORD_ALT_UP_IRDA_CONTROL(irda->base); 
    3800:	e0bfff17 	ldw	r2,-4(fp)
    3804:	10800a17 	ldw	r2,40(r2)
    3808:	10800104 	addi	r2,r2,4
    380c:	10800037 	ldwio	r2,0(r2)
    3810:	e0bffe15 	stw	r2,-8(fp)
	return (ctrl_reg & ALT_UP_IRDA_CONTROL_WSPACE_MSK) >> ALT_UP_IRDA_CONTROL_WSPACE_OFST;
    3814:	e0bffe17 	ldw	r2,-8(fp)
    3818:	10bfffec 	andhi	r2,r2,65535
    381c:	1004d43a 	srli	r2,r2,16
}
    3820:	e037883a 	mov	sp,fp
    3824:	df000017 	ldw	fp,0(sp)
    3828:	dec00104 	addi	sp,sp,4
    382c:	f800283a 	ret

00003830 <alt_up_irda_check_parity>:

int alt_up_irda_check_parity(alt_u32 data_reg)
{
    3830:	defffc04 	addi	sp,sp,-16
    3834:	df000315 	stw	fp,12(sp)
    3838:	df000304 	addi	fp,sp,12
    383c:	e13ffe15 	stw	r4,-8(fp)
	unsigned parity_error = (data_reg & ALT_UP_IRDA_DATA_PE_MSK) >> ALT_UP_IRDA_DATA_PE_OFST;
    3840:	e0bffe17 	ldw	r2,-8(fp)
    3844:	1080800c 	andi	r2,r2,512
    3848:	1004d27a 	srli	r2,r2,9
    384c:	e0bffd15 	stw	r2,-12(fp)
	return (parity_error ? -1 : 0);
    3850:	e0bffd17 	ldw	r2,-12(fp)
    3854:	1005003a 	cmpeq	r2,r2,zero
    3858:	1000031e 	bne	r2,zero,3868 <alt_up_irda_check_parity+0x38>
    385c:	00bfffc4 	movi	r2,-1
    3860:	e0bfff15 	stw	r2,-4(fp)
    3864:	00000106 	br	386c <alt_up_irda_check_parity+0x3c>
    3868:	e03fff15 	stw	zero,-4(fp)
    386c:	e0bfff17 	ldw	r2,-4(fp)
}
    3870:	e037883a 	mov	sp,fp
    3874:	df000017 	ldw	fp,0(sp)
    3878:	dec00104 	addi	sp,sp,4
    387c:	f800283a 	ret

00003880 <alt_up_irda_write_data>:

int alt_up_irda_write_data(alt_up_irda_dev *irda, alt_u8 data)
{
    3880:	defffc04 	addi	sp,sp,-16
    3884:	df000315 	stw	fp,12(sp)
    3888:	df000304 	addi	fp,sp,12
    388c:	e13ffe15 	stw	r4,-8(fp)
    3890:	e17fff05 	stb	r5,-4(fp)
	alt_u32 data_reg;
	data_reg = IORD_ALT_UP_IRDA_DATA(irda->base);
    3894:	e0bffe17 	ldw	r2,-8(fp)
    3898:	10800a17 	ldw	r2,40(r2)
    389c:	10800037 	ldwio	r2,0(r2)
    38a0:	e0bffd15 	stw	r2,-12(fp)

	// we can write directly without thinking about other bit fields for this
	// case ONLY, because only DATA field of the data register is writable
	IOWR_ALT_UP_IRDA_DATA(irda->base, (data>>ALT_UP_IRDA_DATA_DATA_OFST) & ALT_UP_IRDA_DATA_DATA_MSK);
    38a4:	e0bffe17 	ldw	r2,-8(fp)
    38a8:	10800a17 	ldw	r2,40(r2)
    38ac:	e0ffff03 	ldbu	r3,-4(fp)
    38b0:	10c00035 	stwio	r3,0(r2)
	return 0;
    38b4:	0005883a 	mov	r2,zero
}
    38b8:	e037883a 	mov	sp,fp
    38bc:	df000017 	ldw	fp,0(sp)
    38c0:	dec00104 	addi	sp,sp,4
    38c4:	f800283a 	ret

000038c8 <alt_up_irda_read_data>:

int alt_up_irda_read_data(alt_up_irda_dev *irda, alt_u8 *data, alt_u8 *parity_error)
{
    38c8:	defffa04 	addi	sp,sp,-24
    38cc:	dfc00515 	stw	ra,20(sp)
    38d0:	df000415 	stw	fp,16(sp)
    38d4:	df000404 	addi	fp,sp,16
    38d8:	e13ffd15 	stw	r4,-12(fp)
    38dc:	e17ffe15 	stw	r5,-8(fp)
    38e0:	e1bfff15 	stw	r6,-4(fp)
	alt_u32 data_reg;
	data_reg = IORD_ALT_UP_IRDA_DATA(irda->base);
    38e4:	e0bffd17 	ldw	r2,-12(fp)
    38e8:	10800a17 	ldw	r2,40(r2)
    38ec:	10800037 	ldwio	r2,0(r2)
    38f0:	e0bffc15 	stw	r2,-16(fp)
	*data = (data_reg & ALT_UP_IRDA_DATA_DATA_MSK) >> ALT_UP_IRDA_DATA_DATA_OFST;
    38f4:	e0bffc17 	ldw	r2,-16(fp)
    38f8:	1007883a 	mov	r3,r2
    38fc:	e0bffe17 	ldw	r2,-8(fp)
    3900:	10c00005 	stb	r3,0(r2)
	*parity_error = alt_up_irda_check_parity(data_reg);
    3904:	e13ffc17 	ldw	r4,-16(fp)
    3908:	00038300 	call	3830 <alt_up_irda_check_parity>
    390c:	1007883a 	mov	r3,r2
    3910:	e0bfff17 	ldw	r2,-4(fp)
    3914:	10c00005 	stb	r3,0(r2)
	return (((data_reg & ALT_UP_IRDA_DATA_RVALID_MSK) >> ALT_UP_IRDA_DATA_RVALID_OFST) - 1);
    3918:	e0bffc17 	ldw	r2,-16(fp)
    391c:	10a0000c 	andi	r2,r2,32768
    3920:	1004d3fa 	srli	r2,r2,15
    3924:	10bfffc4 	addi	r2,r2,-1
}
    3928:	e037883a 	mov	sp,fp
    392c:	dfc00117 	ldw	ra,4(sp)
    3930:	df000017 	ldw	fp,0(sp)
    3934:	dec00204 	addi	sp,sp,8
    3938:	f800283a 	ret

0000393c <alt_up_irda_read_fd>:

int alt_up_irda_read_fd (alt_fd* fd, char* ptr, int len)
{
    393c:	defff804 	addi	sp,sp,-32
    3940:	dfc00715 	stw	ra,28(sp)
    3944:	df000615 	stw	fp,24(sp)
    3948:	df000604 	addi	fp,sp,24
    394c:	e13ffd15 	stw	r4,-12(fp)
    3950:	e17ffe15 	stw	r5,-8(fp)
    3954:	e1bfff15 	stw	r6,-4(fp)
	alt_up_irda_dev *irda = (alt_up_irda_dev*)fd->dev;
    3958:	e0bffd17 	ldw	r2,-12(fp)
    395c:	10800017 	ldw	r2,0(r2)
    3960:	e0bffb15 	stw	r2,-20(fp)
	int count = 0;
    3964:	e03ffa15 	stw	zero,-24(fp)
	alt_u8 parity_error;
	while(len--)
    3968:	00000c06 	br	399c <alt_up_irda_read_fd+0x60>
	{
		if (alt_up_irda_read_data(irda, ptr++, &parity_error)==0)
    396c:	e17ffe17 	ldw	r5,-8(fp)
    3970:	e0bffe17 	ldw	r2,-8(fp)
    3974:	10800044 	addi	r2,r2,1
    3978:	e0bffe15 	stw	r2,-8(fp)
    397c:	e1bffc04 	addi	r6,fp,-16
    3980:	e13ffb17 	ldw	r4,-20(fp)
    3984:	00038c80 	call	38c8 <alt_up_irda_read_data>
    3988:	1004c03a 	cmpne	r2,r2,zero
    398c:	1000091e 	bne	r2,zero,39b4 <alt_up_irda_read_fd+0x78>
			count++;
    3990:	e0bffa17 	ldw	r2,-24(fp)
    3994:	10800044 	addi	r2,r2,1
    3998:	e0bffa15 	stw	r2,-24(fp)
int alt_up_irda_read_fd (alt_fd* fd, char* ptr, int len)
{
	alt_up_irda_dev *irda = (alt_up_irda_dev*)fd->dev;
	int count = 0;
	alt_u8 parity_error;
	while(len--)
    399c:	e0bfff17 	ldw	r2,-4(fp)
    39a0:	10bfffc4 	addi	r2,r2,-1
    39a4:	e0bfff15 	stw	r2,-4(fp)
    39a8:	e0bfff17 	ldw	r2,-4(fp)
    39ac:	10bfffd8 	cmpnei	r2,r2,-1
    39b0:	103fee1e 	bne	r2,zero,396c <alt_up_irda_read_fd+0x30>
		if (alt_up_irda_read_data(irda, ptr++, &parity_error)==0)
			count++;
		else
			break;
	}
	return count;
    39b4:	e0bffa17 	ldw	r2,-24(fp)
}
    39b8:	e037883a 	mov	sp,fp
    39bc:	dfc00117 	ldw	ra,4(sp)
    39c0:	df000017 	ldw	fp,0(sp)
    39c4:	dec00204 	addi	sp,sp,8
    39c8:	f800283a 	ret

000039cc <alt_up_irda_write_fd>:

int alt_up_irda_write_fd (alt_fd* fd, const char* ptr, int len)
{
    39cc:	defff904 	addi	sp,sp,-28
    39d0:	dfc00615 	stw	ra,24(sp)
    39d4:	df000515 	stw	fp,20(sp)
    39d8:	df000504 	addi	fp,sp,20
    39dc:	e13ffd15 	stw	r4,-12(fp)
    39e0:	e17ffe15 	stw	r5,-8(fp)
    39e4:	e1bfff15 	stw	r6,-4(fp)
	alt_up_irda_dev *irda = (alt_up_irda_dev*)fd->dev;
    39e8:	e0bffd17 	ldw	r2,-12(fp)
    39ec:	10800017 	ldw	r2,0(r2)
    39f0:	e0bffc15 	stw	r2,-16(fp)
	int count = 0;
    39f4:	e03ffb15 	stw	zero,-20(fp)
	while(len--)
    39f8:	00000c06 	br	3a2c <alt_up_irda_write_fd+0x60>
	{
		if (alt_up_irda_write_data(irda, ptr++)==0)
    39fc:	e0bffe17 	ldw	r2,-8(fp)
    3a00:	11403fcc 	andi	r5,r2,255
    3a04:	e0bffe17 	ldw	r2,-8(fp)
    3a08:	10800044 	addi	r2,r2,1
    3a0c:	e0bffe15 	stw	r2,-8(fp)
    3a10:	e13ffc17 	ldw	r4,-16(fp)
    3a14:	00038800 	call	3880 <alt_up_irda_write_data>
    3a18:	1004c03a 	cmpne	r2,r2,zero
    3a1c:	1000091e 	bne	r2,zero,3a44 <alt_up_irda_write_fd+0x78>
			count++;
    3a20:	e0bffb17 	ldw	r2,-20(fp)
    3a24:	10800044 	addi	r2,r2,1
    3a28:	e0bffb15 	stw	r2,-20(fp)

int alt_up_irda_write_fd (alt_fd* fd, const char* ptr, int len)
{
	alt_up_irda_dev *irda = (alt_up_irda_dev*)fd->dev;
	int count = 0;
	while(len--)
    3a2c:	e0bfff17 	ldw	r2,-4(fp)
    3a30:	10bfffc4 	addi	r2,r2,-1
    3a34:	e0bfff15 	stw	r2,-4(fp)
    3a38:	e0bfff17 	ldw	r2,-4(fp)
    3a3c:	10bfffd8 	cmpnei	r2,r2,-1
    3a40:	103fee1e 	bne	r2,zero,39fc <alt_up_irda_write_fd+0x30>
		if (alt_up_irda_write_data(irda, ptr++)==0)
			count++;
		else
			break;
	}
	return count;
    3a44:	e0bffb17 	ldw	r2,-20(fp)
}
    3a48:	e037883a 	mov	sp,fp
    3a4c:	dfc00117 	ldw	ra,4(sp)
    3a50:	df000017 	ldw	fp,0(sp)
    3a54:	dec00204 	addi	sp,sp,8
    3a58:	f800283a 	ret

00003a5c <alt_up_irda_open_dev>:

alt_up_irda_dev* alt_up_irda_open_dev(const char* name)
{
    3a5c:	defffc04 	addi	sp,sp,-16
    3a60:	dfc00315 	stw	ra,12(sp)
    3a64:	df000215 	stw	fp,8(sp)
    3a68:	df000204 	addi	fp,sp,8
    3a6c:	e13fff15 	stw	r4,-4(fp)
  // find the device from the device list 
  // (see altera_hal/HAL/inc/priv/alt_file.h 
  // and altera_hal/HAL/src/alt_find_dev.c 
  // for details)
  alt_up_irda_dev *dev = (alt_up_irda_dev*)alt_find_dev(name, &alt_dev_list);
    3a70:	e13fff17 	ldw	r4,-4(fp)
    3a74:	01400074 	movhi	r5,1
    3a78:	296e9c04 	addi	r5,r5,-17808
    3a7c:	00062b80 	call	62b8 <alt_find_dev>
    3a80:	e0bffe15 	stw	r2,-8(fp)

  return dev;
    3a84:	e0bffe17 	ldw	r2,-8(fp)
}
    3a88:	e037883a 	mov	sp,fp
    3a8c:	dfc00117 	ldw	ra,4(sp)
    3a90:	df000017 	ldw	fp,0(sp)
    3a94:	dec00204 	addi	sp,sp,8
    3a98:	f800283a 	ret

00003a9c <alt_up_parallel_port_open_dev>:

#include "altera_up_avalon_parallel_port.h"
#include "altera_up_avalon_parallel_port_regs.h"

alt_up_parallel_port_dev* alt_up_parallel_port_open_dev(const char* name)
{
    3a9c:	defffc04 	addi	sp,sp,-16
    3aa0:	dfc00315 	stw	ra,12(sp)
    3aa4:	df000215 	stw	fp,8(sp)
    3aa8:	df000204 	addi	fp,sp,8
    3aac:	e13fff15 	stw	r4,-4(fp)
  // find the device from the device list 
  // (see altera_hal/HAL/inc/priv/alt_file.h 
  // and altera_hal/HAL/src/alt_find_dev.c 
  // for details)
  alt_up_parallel_port_dev *dev = (alt_up_parallel_port_dev*)alt_find_dev(name, &alt_dev_list);
    3ab0:	e13fff17 	ldw	r4,-4(fp)
    3ab4:	01400074 	movhi	r5,1
    3ab8:	296e9c04 	addi	r5,r5,-17808
    3abc:	00062b80 	call	62b8 <alt_find_dev>
    3ac0:	e0bffe15 	stw	r2,-8(fp)

  return dev;
    3ac4:	e0bffe17 	ldw	r2,-8(fp)
}
    3ac8:	e037883a 	mov	sp,fp
    3acc:	dfc00117 	ldw	ra,4(sp)
    3ad0:	df000017 	ldw	fp,0(sp)
    3ad4:	dec00204 	addi	sp,sp,8
    3ad8:	f800283a 	ret

00003adc <read_RI_bit>:


//////////////////////////////////////////////////////////////////////////////////////////////
// Internal Functions
alt_u8 read_RI_bit(alt_u32 ctrl_reg)
{
    3adc:	defffd04 	addi	sp,sp,-12
    3ae0:	df000215 	stw	fp,8(sp)
    3ae4:	df000204 	addi	fp,sp,8
    3ae8:	e13fff15 	stw	r4,-4(fp)
	alt_u8 ri = (alt_u8) ((ctrl_reg & ALT_UP_PS2_PORT_CTRL_REG_RI_MSK) >> ALT_UP_PS2_PORT_CTRL_REG_RI_OFST);
    3aec:	e0bfff17 	ldw	r2,-4(fp)
    3af0:	1080400c 	andi	r2,r2,256
    3af4:	1004d23a 	srli	r2,r2,8
    3af8:	e0bffe05 	stb	r2,-8(fp)
	return ri;
    3afc:	e0bffe03 	ldbu	r2,-8(fp)
}
    3b00:	e037883a 	mov	sp,fp
    3b04:	df000017 	ldw	fp,0(sp)
    3b08:	dec00104 	addi	sp,sp,4
    3b0c:	f800283a 	ret

00003b10 <read_RE_bit>:

alt_u8 read_RE_bit(alt_u32 ctrl_reg)
{
    3b10:	defffd04 	addi	sp,sp,-12
    3b14:	df000215 	stw	fp,8(sp)
    3b18:	df000204 	addi	fp,sp,8
    3b1c:	e13fff15 	stw	r4,-4(fp)
	alt_u8 re = (alt_u8) ((ctrl_reg & ALT_UP_PS2_PORT_CTRL_REG_RE_MSK) >> ALT_UP_PS2_PORT_CTRL_REG_RE_OFST);
    3b20:	e0bfff17 	ldw	r2,-4(fp)
    3b24:	1080004c 	andi	r2,r2,1
    3b28:	e0bffe05 	stb	r2,-8(fp)
	return re;
    3b2c:	e0bffe03 	ldbu	r2,-8(fp)
}
    3b30:	e037883a 	mov	sp,fp
    3b34:	df000017 	ldw	fp,0(sp)
    3b38:	dec00104 	addi	sp,sp,4
    3b3c:	f800283a 	ret

00003b40 <read_CE_bit>:

alt_u8 read_CE_bit(alt_u32 ctrl_reg)
{
    3b40:	defffd04 	addi	sp,sp,-12
    3b44:	df000215 	stw	fp,8(sp)
    3b48:	df000204 	addi	fp,sp,8
    3b4c:	e13fff15 	stw	r4,-4(fp)
	alt_u8 re = (alt_u8) ((ctrl_reg & ALT_UP_PS2_PORT_CTRL_REG_CE_MSK) >> ALT_UP_PS2_PORT_CTRL_REG_CE_OFST);
    3b50:	e0bfff17 	ldw	r2,-4(fp)
    3b54:	1081000c 	andi	r2,r2,1024
    3b58:	1004d2ba 	srli	r2,r2,10
    3b5c:	e0bffe05 	stb	r2,-8(fp)
	return re;
    3b60:	e0bffe03 	ldbu	r2,-8(fp)
}
    3b64:	e037883a 	mov	sp,fp
    3b68:	df000017 	ldw	fp,0(sp)
    3b6c:	dec00104 	addi	sp,sp,4
    3b70:	f800283a 	ret

00003b74 <read_num_bytes_available>:

alt_u16 read_num_bytes_available(alt_u32 data_reg)
{
    3b74:	defffd04 	addi	sp,sp,-12
    3b78:	df000215 	stw	fp,8(sp)
    3b7c:	df000204 	addi	fp,sp,8
    3b80:	e13fff15 	stw	r4,-4(fp)
	alt_u16 ravail = (alt_u16)((data_reg & ALT_UP_PS2_PORT_DATA_REG_RAVAIL_MSK ) >> ALT_UP_PS2_PORT_DATA_REG_RAVAIL_OFST);
    3b84:	e0bfff17 	ldw	r2,-4(fp)
    3b88:	10bfffec 	andhi	r2,r2,65535
    3b8c:	1004d43a 	srli	r2,r2,16
    3b90:	e0bffe0d 	sth	r2,-8(fp)
	return ravail;
    3b94:	e0bffe0b 	ldhu	r2,-8(fp)
}
    3b98:	e037883a 	mov	sp,fp
    3b9c:	df000017 	ldw	fp,0(sp)
    3ba0:	dec00104 	addi	sp,sp,4
    3ba4:	f800283a 	ret

00003ba8 <read_data_valid>:

alt_u8 read_data_valid(alt_u32 data_reg)
{
    3ba8:	defffd04 	addi	sp,sp,-12
    3bac:	df000215 	stw	fp,8(sp)
    3bb0:	df000204 	addi	fp,sp,8
    3bb4:	e13fff15 	stw	r4,-4(fp)
	alt_u8 rvalid = (alt_u8)((data_reg & ALT_UP_PS2_PORT_DATA_REG_RVALID_MSK ) >> ALT_UP_PS2_PORT_DATA_REG_RVALID_OFST);
    3bb8:	e0bfff17 	ldw	r2,-4(fp)
    3bbc:	10a0000c 	andi	r2,r2,32768
    3bc0:	1004d3fa 	srli	r2,r2,15
    3bc4:	e0bffe05 	stb	r2,-8(fp)
	return rvalid;
    3bc8:	e0bffe03 	ldbu	r2,-8(fp)
}
    3bcc:	e037883a 	mov	sp,fp
    3bd0:	df000017 	ldw	fp,0(sp)
    3bd4:	dec00104 	addi	sp,sp,4
    3bd8:	f800283a 	ret

00003bdc <read_data_byte>:

alt_u8 read_data_byte(alt_u32 data_reg)
{
    3bdc:	defffd04 	addi	sp,sp,-12
    3be0:	df000215 	stw	fp,8(sp)
    3be4:	df000204 	addi	fp,sp,8
    3be8:	e13fff15 	stw	r4,-4(fp)
	alt_u8 data = (alt_u8) ( (data_reg & ALT_UP_PS2_PORT_DATA_REG_DATA_MSK) >> ALT_UP_PS2_PORT_DATA_REG_DATA_OFST) ;
    3bec:	e0bfff17 	ldw	r2,-4(fp)
    3bf0:	e0bffe05 	stb	r2,-8(fp)
	return data;
    3bf4:	e0bffe03 	ldbu	r2,-8(fp)
}
    3bf8:	e037883a 	mov	sp,fp
    3bfc:	df000017 	ldw	fp,0(sp)
    3c00:	dec00104 	addi	sp,sp,4
    3c04:	f800283a 	ret

00003c08 <alt_up_ps2_init>:

//////////////////////////////////////////////////////////////////////////////////////////////
// HAL Functions
void alt_up_ps2_init(alt_up_ps2_dev *ps2)
{
    3c08:	defffb04 	addi	sp,sp,-20
    3c0c:	dfc00415 	stw	ra,16(sp)
    3c10:	df000315 	stw	fp,12(sp)
    3c14:	df000304 	addi	fp,sp,12
    3c18:	e13fff15 	stw	r4,-4(fp)
	// initialize the device
	unsigned char byte;
	//send the reset request, wait for ACK
	int status = alt_up_ps2_write_data_byte_with_ack(ps2, 0xff);
    3c1c:	e13fff17 	ldw	r4,-4(fp)
    3c20:	01403fc4 	movi	r5,255
    3c24:	0003e680 	call	3e68 <alt_up_ps2_write_data_byte_with_ack>
    3c28:	e0bffd15 	stw	r2,-12(fp)
	if (status == 0)
    3c2c:	e0bffd17 	ldw	r2,-12(fp)
    3c30:	1004c03a 	cmpne	r2,r2,zero
    3c34:	1000221e 	bne	r2,zero,3cc0 <alt_up_ps2_init+0xb8>
	{
		// reset succeed, now try to get the BAT result, AA means passed
		status = alt_up_ps2_read_data_byte_timeout(ps2, &byte);
    3c38:	e17ffe04 	addi	r5,fp,-8
    3c3c:	e13fff17 	ldw	r4,-4(fp)
    3c40:	0003ed40 	call	3ed4 <alt_up_ps2_read_data_byte_timeout>
    3c44:	e0bffd15 	stw	r2,-12(fp)
		if (status == 0 && byte == 0xAA)
    3c48:	e0bffd17 	ldw	r2,-12(fp)
    3c4c:	1004c03a 	cmpne	r2,r2,zero
    3c50:	10001b1e 	bne	r2,zero,3cc0 <alt_up_ps2_init+0xb8>
    3c54:	e0bffe03 	ldbu	r2,-8(fp)
    3c58:	10803fcc 	andi	r2,r2,255
    3c5c:	10802a98 	cmpnei	r2,r2,170
    3c60:	1000171e 	bne	r2,zero,3cc0 <alt_up_ps2_init+0xb8>
		{
			//get the 2nd byte
			status = alt_up_ps2_read_data_byte_timeout(ps2, &byte);
    3c64:	e17ffe04 	addi	r5,fp,-8
    3c68:	e13fff17 	ldw	r4,-4(fp)
    3c6c:	0003ed40 	call	3ed4 <alt_up_ps2_read_data_byte_timeout>
    3c70:	e0bffd15 	stw	r2,-12(fp)
			if (status == -ETIMEDOUT)
    3c74:	e0bffd17 	ldw	r2,-12(fp)
    3c78:	10bfe318 	cmpnei	r2,r2,-116
    3c7c:	1000041e 	bne	r2,zero,3c90 <alt_up_ps2_init+0x88>
			{
				//for keyboard, only 2 bytes are sent(ACK, PASS/FAIL), so timeout
				ps2->device_type = PS2_KEYBOARD;
    3c80:	e0ffff17 	ldw	r3,-4(fp)
    3c84:	00800044 	movi	r2,1
    3c88:	18800d15 	stw	r2,52(r3)
    3c8c:	00000c06 	br	3cc0 <alt_up_ps2_init+0xb8>
			}
			else if (status == 0 && byte == 0x00)
    3c90:	e0bffd17 	ldw	r2,-12(fp)
    3c94:	1004c03a 	cmpne	r2,r2,zero
    3c98:	1000091e 	bne	r2,zero,3cc0 <alt_up_ps2_init+0xb8>
    3c9c:	e0bffe03 	ldbu	r2,-8(fp)
    3ca0:	10803fcc 	andi	r2,r2,255
    3ca4:	1004c03a 	cmpne	r2,r2,zero
    3ca8:	1000051e 	bne	r2,zero,3cc0 <alt_up_ps2_init+0xb8>
			{
				//for mouse, it will sent out 0x00 after sending out ACK and PASS/FAIL.
				ps2->device_type = PS2_MOUSE;
    3cac:	e0bfff17 	ldw	r2,-4(fp)
    3cb0:	10000d15 	stw	zero,52(r2)
				(void) alt_up_ps2_write_data_byte (ps2, 0xf4); // enable data from mouse
    3cb4:	e13fff17 	ldw	r4,-4(fp)
    3cb8:	01403d04 	movi	r5,244
    3cbc:	0003d800 	call	3d80 <alt_up_ps2_write_data_byte>
			}
		}
	}
}
    3cc0:	e037883a 	mov	sp,fp
    3cc4:	dfc00117 	ldw	ra,4(sp)
    3cc8:	df000017 	ldw	fp,0(sp)
    3ccc:	dec00204 	addi	sp,sp,8
    3cd0:	f800283a 	ret

00003cd4 <alt_up_ps2_enable_read_interrupt>:

void alt_up_ps2_enable_read_interrupt(alt_up_ps2_dev *ps2)
{
    3cd4:	defffd04 	addi	sp,sp,-12
    3cd8:	df000215 	stw	fp,8(sp)
    3cdc:	df000204 	addi	fp,sp,8
    3ce0:	e13fff15 	stw	r4,-4(fp)
	unsigned int ctrl_reg;
	ctrl_reg = IORD_ALT_UP_PS2_PORT_CTRL_REG(ps2->base); 
    3ce4:	e0bfff17 	ldw	r2,-4(fp)
    3ce8:	10800a17 	ldw	r2,40(r2)
    3cec:	10800104 	addi	r2,r2,4
    3cf0:	10800037 	ldwio	r2,0(r2)
    3cf4:	e0bffe15 	stw	r2,-8(fp)
	// set RE to 1 while maintaining other bits the same
	ctrl_reg |= ALT_UP_PS2_PORT_CTRL_REG_RE_MSK;
    3cf8:	e0bffe17 	ldw	r2,-8(fp)
    3cfc:	10800054 	ori	r2,r2,1
    3d00:	e0bffe15 	stw	r2,-8(fp)
	IOWR_ALT_UP_PS2_PORT_CTRL_REG(ps2->base, ctrl_reg);
    3d04:	e0bfff17 	ldw	r2,-4(fp)
    3d08:	10800a17 	ldw	r2,40(r2)
    3d0c:	10800104 	addi	r2,r2,4
    3d10:	e0fffe17 	ldw	r3,-8(fp)
    3d14:	10c00035 	stwio	r3,0(r2)
}
    3d18:	e037883a 	mov	sp,fp
    3d1c:	df000017 	ldw	fp,0(sp)
    3d20:	dec00104 	addi	sp,sp,4
    3d24:	f800283a 	ret

00003d28 <alt_up_ps2_disable_read_interrupt>:

void alt_up_ps2_disable_read_interrupt(alt_up_ps2_dev *ps2)
{
    3d28:	defffd04 	addi	sp,sp,-12
    3d2c:	df000215 	stw	fp,8(sp)
    3d30:	df000204 	addi	fp,sp,8
    3d34:	e13fff15 	stw	r4,-4(fp)
	unsigned int ctrl_reg;
	ctrl_reg = IORD_ALT_UP_PS2_PORT_CTRL_REG(ps2->base); 
    3d38:	e0bfff17 	ldw	r2,-4(fp)
    3d3c:	10800a17 	ldw	r2,40(r2)
    3d40:	10800104 	addi	r2,r2,4
    3d44:	10800037 	ldwio	r2,0(r2)
    3d48:	e0bffe15 	stw	r2,-8(fp)
	// set RE to 0 while maintaining other bits the same
	ctrl_reg &= ~ALT_UP_PS2_PORT_CTRL_REG_RE_MSK;
    3d4c:	e0fffe17 	ldw	r3,-8(fp)
    3d50:	00bfff84 	movi	r2,-2
    3d54:	1884703a 	and	r2,r3,r2
    3d58:	e0bffe15 	stw	r2,-8(fp)
	IOWR_ALT_UP_PS2_PORT_CTRL_REG(ps2->base, ctrl_reg);
    3d5c:	e0bfff17 	ldw	r2,-4(fp)
    3d60:	10800a17 	ldw	r2,40(r2)
    3d64:	10800104 	addi	r2,r2,4
    3d68:	e0fffe17 	ldw	r3,-8(fp)
    3d6c:	10c00035 	stwio	r3,0(r2)
}
    3d70:	e037883a 	mov	sp,fp
    3d74:	df000017 	ldw	fp,0(sp)
    3d78:	dec00104 	addi	sp,sp,4
    3d7c:	f800283a 	ret

00003d80 <alt_up_ps2_write_data_byte>:

int alt_up_ps2_write_data_byte(alt_up_ps2_dev *ps2, unsigned char byte)
{
    3d80:	defffa04 	addi	sp,sp,-24
    3d84:	dfc00515 	stw	ra,20(sp)
    3d88:	df000415 	stw	fp,16(sp)
    3d8c:	df000404 	addi	fp,sp,16
    3d90:	e13ffd15 	stw	r4,-12(fp)
    3d94:	e17ffe05 	stb	r5,-8(fp)
	//note: data are only located at the lower 8 bits
	//note: the software send command to the PS2 peripheral through the data
	//		register rather than the control register
	IOWR_ALT_UP_PS2_PORT_DATA(ps2->base, byte);
    3d98:	e0bffd17 	ldw	r2,-12(fp)
    3d9c:	10800a17 	ldw	r2,40(r2)
    3da0:	e0fffe03 	ldbu	r3,-8(fp)
    3da4:	10c00025 	stbio	r3,0(r2)
	alt_u32 ctrl_reg = IORD_ALT_UP_PS2_PORT_CTRL_REG(ps2->base);
    3da8:	e0bffd17 	ldw	r2,-12(fp)
    3dac:	10800a17 	ldw	r2,40(r2)
    3db0:	10800104 	addi	r2,r2,4
    3db4:	10800037 	ldwio	r2,0(r2)
    3db8:	e0bffc15 	stw	r2,-16(fp)
	if (read_CE_bit(ctrl_reg))
    3dbc:	e13ffc17 	ldw	r4,-16(fp)
    3dc0:	0003b400 	call	3b40 <read_CE_bit>
    3dc4:	10803fcc 	andi	r2,r2,255
    3dc8:	1005003a 	cmpeq	r2,r2,zero
    3dcc:	1000031e 	bne	r2,zero,3ddc <alt_up_ps2_write_data_byte+0x5c>
	{
		//CE bit is set --> error occurs on sending commands
		return -EIO;
    3dd0:	00bffec4 	movi	r2,-5
    3dd4:	e0bfff15 	stw	r2,-4(fp)
    3dd8:	00000106 	br	3de0 <alt_up_ps2_write_data_byte+0x60>
	}
	return 0;
    3ddc:	e03fff15 	stw	zero,-4(fp)
    3de0:	e0bfff17 	ldw	r2,-4(fp)
}
    3de4:	e037883a 	mov	sp,fp
    3de8:	dfc00117 	ldw	ra,4(sp)
    3dec:	df000017 	ldw	fp,0(sp)
    3df0:	dec00204 	addi	sp,sp,8
    3df4:	f800283a 	ret

00003df8 <alt_up_ps2_wait_for_ack>:

int alt_up_ps2_wait_for_ack(alt_up_ps2_dev *ps2)
{
    3df8:	defffb04 	addi	sp,sp,-20
    3dfc:	dfc00415 	stw	ra,16(sp)
    3e00:	df000315 	stw	fp,12(sp)
    3e04:	df000304 	addi	fp,sp,12
    3e08:	e13ffe15 	stw	r4,-8(fp)
	unsigned char data = 0;
    3e0c:	e03ffd45 	stb	zero,-11(fp)
	unsigned char status = 0;
    3e10:	e03ffd05 	stb	zero,-12(fp)
	do
	{
		status = alt_up_ps2_read_data_byte_timeout(ps2, &data); 
    3e14:	e17ffd44 	addi	r5,fp,-11
    3e18:	e13ffe17 	ldw	r4,-8(fp)
    3e1c:	0003ed40 	call	3ed4 <alt_up_ps2_read_data_byte_timeout>
